---
triple:          'arm64-apple-darwin'
binary-path:     '/Volumes/Samsung/coding/Project_2024/CrackYourPlacement/CrackYourPlacement/Mathmatical/output/reverse_string'
relocations:
  - { offsetInCU: 0x4D93, offset: 0x4D93, size: 0x8, addend: 0x0, symName: __ZNSt3__124__put_character_sequenceB8ne180100IcNS_11char_traitsIcEEEERNS_13basic_ostreamIT_T0_EES7_PKS4_m, symObjAddr: 0x3094, symBinAddr: 0x100007070, symSize: 0x1F4 }
  - { offsetInCU: 0x693D, offset: 0x693D, size: 0x8, addend: 0x0, symName: __ZNSt3__1lsB8ne180100IcNS_11char_traitsIcEENS_9allocatorIcEEEERNS_13basic_ostreamIT_T0_EES9_RKNS_12basic_stringIS6_S7_T1_EE, symObjAddr: 0x3E4, symBinAddr: 0x1000043C0, symSize: 0x4C }
  - { offsetInCU: 0x6995, offset: 0x6995, size: 0x8, addend: 0x0, symName: __ZNSt3__1neB8ne180100IPcEEbRKNS_11__wrap_iterIT_EES6_, symObjAddr: 0x53C, symBinAddr: 0x100004518, symSize: 0x34 }
  - { offsetInCU: 0x69D8, offset: 0x69D8, size: 0x8, addend: 0x0, symName: __ZNSt3__17reverseB8ne180100INS_11__wrap_iterIPNS_12basic_stringIcNS_11char_traitsIcEENS_9allocatorIcEEEEEEEEvT_SA_, symObjAddr: 0x6BC, symBinAddr: 0x100004698, symSize: 0x3C }
  - { offsetInCU: 0x6A17, offset: 0x6A17, size: 0x8, addend: 0x0, symName: __ZNSt3__130__libcpp_is_constant_evaluatedB8ne180100Ev, symObjAddr: 0xC60, symBinAddr: 0x100004C3C, symSize: 0xC }
  - { offsetInCU: 0x6A67, offset: 0x6A67, size: 0x8, addend: 0x0, symName: __ZNSt3__1eqB8ne180100IPcEEbRKNS_11__wrap_iterIT_EES6_, symObjAddr: 0xDA0, symBinAddr: 0x100004D7C, symSize: 0x48 }
  - { offsetInCU: 0x6AAA, offset: 0x6AAA, size: 0x8, addend: 0x0, symName: __ZNSt3__112__to_addressB8ne180100INS_12basic_stringIcNS_11char_traitsIcEENS_9allocatorIcEEEEEEPT_S8_, symObjAddr: 0x1080, symBinAddr: 0x10000505C, symSize: 0x14 }
  - { offsetInCU: 0x6ADF, offset: 0x6ADF, size: 0x8, addend: 0x0, symName: __ZNSt3__13maxB8ne180100ImEERKT_S3_S3_, symObjAddr: 0x1498, symBinAddr: 0x100005474, symSize: 0x2C }
  - { offsetInCU: 0x6B22, offset: 0x6B22, size: 0x8, addend: 0x0, symName: __ZNSt3__13minB8ne180100ImEERKT_S3_S3_, symObjAddr: 0x14C4, symBinAddr: 0x1000054A0, symSize: 0x2C }
  - { offsetInCU: 0x6D66, offset: 0x6D66, size: 0x8, addend: 0x0, symName: __ZNSt3__13minB8ne180100ImNS_6__lessIvvEEEERKT_S5_S5_T0_, symObjAddr: 0x1550, symBinAddr: 0x10000552C, symSize: 0x54 }
  - { offsetInCU: 0x6E05, offset: 0x6E05, size: 0x8, addend: 0x0, symName: __ZNSt3__120__throw_length_errorB8ne180100EPKc, symObjAddr: 0x1630, symBinAddr: 0x10000560C, symSize: 0x64 }
  - { offsetInCU: 0x6E2D, offset: 0x6E2D, size: 0x8, addend: 0x0, symName: __ZNSt3__13maxB8ne180100ImNS_6__lessIvvEEEERKT_S5_S5_T0_, symObjAddr: 0x1774, symBinAddr: 0x100005750, symSize: 0x54 }
  - { offsetInCU: 0x6E87, offset: 0x6E87, size: 0x8, addend: 0x0, symName: __ZNSt3__119__allocate_at_leastB8ne180100INS_9allocatorINS_12basic_stringIcNS_11char_traitsIcEENS1_IcEEEEEEEENS_19__allocation_resultINS_16allocator_traitsIT_E7pointerEEERSA_m, symObjAddr: 0x18E4, symBinAddr: 0x1000058C0, symSize: 0x40 }
  - { offsetInCU: 0x6ECA, offset: 0x6ECA, size: 0x8, addend: 0x0, symName: __ZNSt3__117__libcpp_allocateB8ne180100Emm, symObjAddr: 0x1A9C, symBinAddr: 0x100005A78, symSize: 0x28 }
  - { offsetInCU: 0x6F07, offset: 0x6F07, size: 0x8, addend: 0x0, symName: __ZNSt3__121__libcpp_operator_newB8ne180100IJmEEEPvDpT_, symObjAddr: 0x1AC4, symBinAddr: 0x100005AA0, symSize: 0x24 }
  - { offsetInCU: 0x6F40, offset: 0x6F40, size: 0x8, addend: 0x0, symName: __ZNSt3__142__uninitialized_allocator_move_if_noexceptB8ne180100INS_9allocatorINS_12basic_stringIcNS_11char_traitsIcEENS1_IcEEEEEENS_16reverse_iteratorIPS6_EESA_SA_EET2_RT_T0_T1_SB_, symObjAddr: 0x1B5C, symBinAddr: 0x100005B38, symSize: 0x134 }
  - { offsetInCU: 0x6FE0, offset: 0x6FE0, size: 0x8, addend: 0x0, symName: __ZNSt3__14swapB8ne180100IPNS_12basic_stringIcNS_11char_traitsIcEENS_9allocatorIcEEEEEEvRT_S9_, symObjAddr: 0x1CDC, symBinAddr: 0x100005CB8, symSize: 0x3C }
  - { offsetInCU: 0x7031, offset: 0x7031, size: 0x8, addend: 0x0, symName: __ZNSt3__122__make_exception_guardB8ne180100INS_29_AllocatorDestroyRangeReverseINS_9allocatorINS_12basic_stringIcNS_11char_traitsIcEENS2_IcEEEEEENS_16reverse_iteratorIPS7_EEEEEENS_28__exception_guard_exceptionsIT_EESE_, symObjAddr: 0x1D2C, symBinAddr: 0x100005D08, symSize: 0x4C }
  - { offsetInCU: 0x7067, offset: 0x7067, size: 0x8, addend: 0x0, symName: __ZNSt3__1neB8ne180100IPNS_12basic_stringIcNS_11char_traitsIcEENS_9allocatorIcEEEES7_EEbRKNS_16reverse_iteratorIT_EERKNS8_IT0_EE, symObjAddr: 0x1DBC, symBinAddr: 0x100005D98, symSize: 0x48 }
  - { offsetInCU: 0x70B3, offset: 0x70B3, size: 0x8, addend: 0x0, symName: __ZNSt3__112__to_addressB8ne180100INS_16reverse_iteratorIPNS_12basic_stringIcNS_11char_traitsIcEENS_9allocatorIcEEEEEEvEEu7__decayIDTclsr19__to_address_helperIT_EE6__callclsr3stdE7declvalIRKSA_EEEEESC_, symObjAddr: 0x1E04, symBinAddr: 0x100005DE0, symSize: 0x24 }
  - { offsetInCU: 0x7112, offset: 0x7112, size: 0x8, addend: 0x0, symName: __ZNSt3__119__allocator_destroyB8ne180100INS_9allocatorINS_12basic_stringIcNS_11char_traitsIcEENS1_IcEEEEEENS_16reverse_iteratorINS8_IPS6_EEEESB_EEvRT_T0_T1_, symObjAddr: 0x20C0, symBinAddr: 0x10000609C, symSize: 0x70 }
  - { offsetInCU: 0x7177, offset: 0x7177, size: 0x8, addend: 0x0, symName: __ZNSt3__1neB8ne180100INS_16reverse_iteratorIPNS_12basic_stringIcNS_11char_traitsIcEENS_9allocatorIcEEEEEES9_EEbRKNS1_IT_EERKNS1_IT0_EE, symObjAddr: 0x216C, symBinAddr: 0x100006148, symSize: 0x60 }
  - { offsetInCU: 0x71C3, offset: 0x71C3, size: 0x8, addend: 0x0, symName: __ZNSt3__112__to_addressB8ne180100INS_16reverse_iteratorINS1_IPNS_12basic_stringIcNS_11char_traitsIcEENS_9allocatorIcEEEEEEEEvEEu7__decayIDTclsr19__to_address_helperIT_EE6__callclsr3stdE7declvalIRKSB_EEEEESD_, symObjAddr: 0x21F8, symBinAddr: 0x1000061D4, symSize: 0x24 }
  - { offsetInCU: 0x7222, offset: 0x7222, size: 0x8, addend: 0x0, symName: __ZNSt3__119__libcpp_deallocateB8ne180100EPvmm, symObjAddr: 0x2600, symBinAddr: 0x1000065DC, symSize: 0x30 }
  - { offsetInCU: 0x726A, offset: 0x726A, size: 0x8, addend: 0x0, symName: __ZNSt3__127__do_deallocate_handle_sizeB8ne180100IJEEEvPvmDpT_, symObjAddr: 0x2630, symBinAddr: 0x10000660C, symSize: 0x28 }
  - { offsetInCU: 0x72A8, offset: 0x72A8, size: 0x8, addend: 0x0, symName: __ZNSt3__124__libcpp_operator_deleteB8ne180100IJPvEEEvDpT_, symObjAddr: 0x2658, symBinAddr: 0x100006634, symSize: 0x24 }
  - { offsetInCU: 0x72DD, offset: 0x72DD, size: 0x8, addend: 0x0, symName: __ZNSt3__19__reverseB8ne180100INS_17_ClassicAlgPolicyENS_11__wrap_iterIPNS_12basic_stringIcNS_11char_traitsIcEENS_9allocatorIcEEEEEESA_EEvT0_T1_, symObjAddr: 0x26C8, symBinAddr: 0x1000066A4, symSize: 0x3C }
  - { offsetInCU: 0x732E, offset: 0x732E, size: 0x8, addend: 0x0, symName: __ZNSt3__114__reverse_implB8ne180100INS_17_ClassicAlgPolicyENS_11__wrap_iterIPNS_12basic_stringIcNS_11char_traitsIcEENS_9allocatorIcEEEEEEEEvT0_SB_NS_26random_access_iterator_tagE, symObjAddr: 0x2704, symBinAddr: 0x1000066E0, symSize: 0x7C }
  - { offsetInCU: 0x7380, offset: 0x7380, size: 0x8, addend: 0x0, symName: __ZNSt3__1neB8ne180100IPNS_12basic_stringIcNS_11char_traitsIcEENS_9allocatorIcEEEEEEbRKNS_11__wrap_iterIT_EESC_, symObjAddr: 0x2780, symBinAddr: 0x10000675C, symSize: 0x34 }
  - { offsetInCU: 0x73C3, offset: 0x73C3, size: 0x8, addend: 0x0, symName: __ZNSt3__1ltB8ne180100IPNS_12basic_stringIcNS_11char_traitsIcEENS_9allocatorIcEEEEEEbRKNS_11__wrap_iterIT_EESC_, symObjAddr: 0x27B4, symBinAddr: 0x100006790, symSize: 0x48 }
  - { offsetInCU: 0x744A, offset: 0x744A, size: 0x8, addend: 0x0, symName: __ZNSt3__1eqB8ne180100IPNS_12basic_stringIcNS_11char_traitsIcEENS_9allocatorIcEEEEEEbRKNS_11__wrap_iterIT_EESC_, symObjAddr: 0x2880, symBinAddr: 0x10000685C, symSize: 0x48 }
  - { offsetInCU: 0x748D, offset: 0x748D, size: 0x8, addend: 0x0, symName: __ZNSt3__19iter_swapB8ne180100INS_11__wrap_iterIPNS_12basic_stringIcNS_11char_traitsIcEENS_9allocatorIcEEEEEES9_EEvT_T0_, symObjAddr: 0x28E0, symBinAddr: 0x1000068BC, symSize: 0x50 }
  - { offsetInCU: 0x74D5, offset: 0x74D5, size: 0x8, addend: 0x0, symName: __ZNSt3__14swapB8ne180100IcNS_11char_traitsIcEENS_9allocatorIcEEEEvRNS_12basic_stringIT_T0_T1_EESA_, symObjAddr: 0x2930, symBinAddr: 0x10000690C, symSize: 0x2C }
  - { offsetInCU: 0x7529, offset: 0x7529, size: 0x8, addend: 0x0, symName: __ZNSt3__14swapB8ne180100INS_12basic_stringIcNS_11char_traitsIcEENS_9allocatorIcEEE5__repEEEvRT_S9_, symObjAddr: 0x2AA8, symBinAddr: 0x100006A84, symSize: 0x54 }
  - { offsetInCU: 0x757A, offset: 0x757A, size: 0x8, addend: 0x0, symName: __ZNSt3__116__swap_allocatorB8ne180100INS_9allocatorIcEEEEvRT_S4_, symObjAddr: 0x2AFC, symBinAddr: 0x100006AD8, symSize: 0x2C }
  - { offsetInCU: 0x75B9, offset: 0x75B9, size: 0x8, addend: 0x0, symName: __ZNSt3__116__swap_allocatorB8ne180100INS_9allocatorIcEEEEvRT_S4_NS_17integral_constantIbLb0EEE, symObjAddr: 0x2B4C, symBinAddr: 0x100006B28, symSize: 0x14 }
  - { offsetInCU: 0x75FA, offset: 0x75FA, size: 0x8, addend: 0x0, symName: __ZNSt3__112__to_addressB8ne180100IKcEEPT_S3_, symObjAddr: 0x2C90, symBinAddr: 0x100006C6C, symSize: 0x14 }
  - { offsetInCU: 0x7662, offset: 0x7662, size: 0x8, addend: 0x0, symName: __ZNSt3__118__constexpr_strlenB8ne180100EPKc, symObjAddr: 0x3070, symBinAddr: 0x10000704C, symSize: 0x24 }
  - { offsetInCU: 0x768E, offset: 0x768E, size: 0x8, addend: 0x0, symName: __ZNSt3__116__pad_and_outputB8ne180100IcNS_11char_traitsIcEEEENS_19ostreambuf_iteratorIT_T0_EES6_PKS4_S8_S8_RNS_8ios_baseES4_, symObjAddr: 0x32A4, symBinAddr: 0x100007280, symSize: 0x248 }
  - { offsetInCU: 0x775D, offset: 0x775D, size: 0x8, addend: 0x0, symName: __ZNSt3__19use_facetB8ne180100INS_5ctypeIcEEEERKT_RKNS_6localeE, symObjAddr: 0x3854, symBinAddr: 0x100007830, symSize: 0x2C }
  - { offsetInCU: 0x7E14, offset: 0x7E14, size: 0x8, addend: 0x0, symName: __ZSt28__throw_bad_array_new_lengthB8ne180100v, symObjAddr: 0x1A68, symBinAddr: 0x100005A44, symSize: 0x34 }
  - { offsetInCU: 0x82C9, offset: 0x82C9, size: 0x8, addend: 0x0, symName: __ZNSt3__16vectorINS_12basic_stringIcNS_11char_traitsIcEENS_9allocatorIcEEEENS4_IS6_EEE26__swap_out_circular_bufferERNS_14__split_bufferIS6_RS7_EE, symObjAddr: 0x128C, symBinAddr: 0x100005268, symSize: 0x110 }
  - { offsetInCU: 0xA6FA, offset: 0xA6FA, size: 0x8, addend: 0x0, symName: _main, symObjAddr: 0x0, symBinAddr: 0x100003FDC, symSize: 0xF4 }
  - { offsetInCU: 0xA744, offset: 0xA744, size: 0x8, addend: 0x0, symName: __ZNSt3__112basic_stringIcNS_11char_traitsIcEENS_9allocatorIcEEEC1B8ne180100ILi0EEEPKc, symObjAddr: 0xF4, symBinAddr: 0x1000040D0, symSize: 0x34 }
  - { offsetInCU: 0xA7AC, offset: 0xA7AC, size: 0x8, addend: 0x0, symName: __ZN8solution3revENSt3__112basic_stringIcNS0_11char_traitsIcEENS0_9allocatorIcEEEE, symObjAddr: 0x128, symBinAddr: 0x100004104, symSize: 0x2B0 }
  - { offsetInCU: 0xA87A, offset: 0xA87A, size: 0x8, addend: 0x0, symName: __ZNSt3__16vectorINS_12basic_stringIcNS_11char_traitsIcEENS_9allocatorIcEEEENS4_IS6_EEEC1B8ne180100Ev, symObjAddr: 0x430, symBinAddr: 0x10000440C, symSize: 0x2C }
  - { offsetInCU: 0xA8A3, offset: 0xA8A3, size: 0x8, addend: 0x0, symName: __ZNSt3__112basic_stringIcNS_11char_traitsIcEENS_9allocatorIcEEEC1B8ne180100Ev, symObjAddr: 0x45C, symBinAddr: 0x100004438, symSize: 0x2C }
  - { offsetInCU: 0xA8CC, offset: 0xA8CC, size: 0x8, addend: 0x0, symName: __ZNSt3__112basic_stringIcNS_11char_traitsIcEENS_9allocatorIcEEE5beginB8ne180100Ev, symObjAddr: 0x488, symBinAddr: 0x100004464, symSize: 0x60 }
  - { offsetInCU: 0xA8F1, offset: 0xA8F1, size: 0x8, addend: 0x0, symName: __ZNSt3__112basic_stringIcNS_11char_traitsIcEENS_9allocatorIcEEE3endB8ne180100Ev, symObjAddr: 0x4E8, symBinAddr: 0x1000044C4, symSize: 0x54 }
  - { offsetInCU: 0xA916, offset: 0xA916, size: 0x8, addend: 0x0, symName: __ZNKSt3__111__wrap_iterIPcEdeB8ne180100Ev, symObjAddr: 0x570, symBinAddr: 0x10000454C, symSize: 0x18 }
  - { offsetInCU: 0xA93A, offset: 0xA93A, size: 0x8, addend: 0x0, symName: __ZNSt3__16vectorINS_12basic_stringIcNS_11char_traitsIcEENS_9allocatorIcEEEENS4_IS6_EEE9push_backB8ne180100ERKS6_, symObjAddr: 0x588, symBinAddr: 0x100004564, symSize: 0x90 }
  - { offsetInCU: 0xA97F, offset: 0xA97F, size: 0x8, addend: 0x0, symName: __ZNSt3__112basic_stringIcNS_11char_traitsIcEENS_9allocatorIcEEEaSB8ne180100EPKc, symObjAddr: 0x618, symBinAddr: 0x1000045F4, symSize: 0x2C }
  - { offsetInCU: 0xA9B3, offset: 0xA9B3, size: 0x8, addend: 0x0, symName: __ZNSt3__112basic_stringIcNS_11char_traitsIcEENS_9allocatorIcEEEpLB8ne180100Ec, symObjAddr: 0x644, symBinAddr: 0x100004620, symSize: 0x34 }
  - { offsetInCU: 0xA9E7, offset: 0xA9E7, size: 0x8, addend: 0x0, symName: __ZNSt3__111__wrap_iterIPcEppB8ne180100Ev, symObjAddr: 0x678, symBinAddr: 0x100004654, symSize: 0x20 }
  - { offsetInCU: 0xAA0C, offset: 0xAA0C, size: 0x8, addend: 0x0, symName: __ZNKSt3__112basic_stringIcNS_11char_traitsIcEENS_9allocatorIcEEE6lengthB8ne180100Ev, symObjAddr: 0x698, symBinAddr: 0x100004674, symSize: 0x24 }
  - { offsetInCU: 0xAA30, offset: 0xAA30, size: 0x8, addend: 0x0, symName: __ZNSt3__16vectorINS_12basic_stringIcNS_11char_traitsIcEENS_9allocatorIcEEEENS4_IS6_EEE5beginB8ne180100Ev, symObjAddr: 0x6F8, symBinAddr: 0x1000046D4, symSize: 0x30 }
  - { offsetInCU: 0xAA56, offset: 0xAA56, size: 0x8, addend: 0x0, symName: __ZNSt3__16vectorINS_12basic_stringIcNS_11char_traitsIcEENS_9allocatorIcEEEENS4_IS6_EEE3endB8ne180100Ev, symObjAddr: 0x728, symBinAddr: 0x100004704, symSize: 0x30 }
  - { offsetInCU: 0xAA7D, offset: 0xAA7D, size: 0x8, addend: 0x0, symName: __ZNKSt3__16vectorINS_12basic_stringIcNS_11char_traitsIcEENS_9allocatorIcEEEENS4_IS6_EEE4sizeB8ne180100Ev, symObjAddr: 0x758, symBinAddr: 0x100004734, symSize: 0x28 }
  - { offsetInCU: 0xAAA2, offset: 0xAAA2, size: 0x8, addend: 0x0, symName: __ZNSt3__16vectorINS_12basic_stringIcNS_11char_traitsIcEENS_9allocatorIcEEEENS4_IS6_EEEixB8ne180100Em, symObjAddr: 0x780, symBinAddr: 0x10000475C, symSize: 0x2C }
  - { offsetInCU: 0xAAD8, offset: 0xAAD8, size: 0x8, addend: 0x0, symName: __ZNSt3__112basic_stringIcNS_11char_traitsIcEENS_9allocatorIcEEEpLB8ne180100ERKS5_, symObjAddr: 0x7AC, symBinAddr: 0x100004788, symSize: 0x2C }
  - { offsetInCU: 0xAB0C, offset: 0xAB0C, size: 0x8, addend: 0x0, symName: __ZNSt3__16vectorINS_12basic_stringIcNS_11char_traitsIcEENS_9allocatorIcEEEENS4_IS6_EEED1B8ne180100Ev, symObjAddr: 0x7D8, symBinAddr: 0x1000047B4, symSize: 0x2C }
  - { offsetInCU: 0xAB35, offset: 0xAB35, size: 0x8, addend: 0x0, symName: __ZNSt3__16vectorINS_12basic_stringIcNS_11char_traitsIcEENS_9allocatorIcEEEENS4_IS6_EEEC2B8ne180100Ev, symObjAddr: 0x804, symBinAddr: 0x1000047E0, symSize: 0x44 }
  - { offsetInCU: 0xAB68, offset: 0xAB68, size: 0x8, addend: 0x0, symName: __ZNSt3__117__compressed_pairIPNS_12basic_stringIcNS_11char_traitsIcEENS_9allocatorIcEEEENS4_IS6_EEEC1B8ne180100IDnNS_18__default_init_tagEEEOT_OT0_, symObjAddr: 0x848, symBinAddr: 0x100004824, symSize: 0x3C }
  - { offsetInCU: 0xABBF, offset: 0xABBF, size: 0x8, addend: 0x0, symName: __ZNSt3__117__compressed_pairIPNS_12basic_stringIcNS_11char_traitsIcEENS_9allocatorIcEEEENS4_IS6_EEEC2B8ne180100IDnNS_18__default_init_tagEEEOT_OT0_, symObjAddr: 0x884, symBinAddr: 0x100004860, symSize: 0x40 }
  - { offsetInCU: 0xAC16, offset: 0xAC16, size: 0x8, addend: 0x0, symName: __ZNSt3__122__compressed_pair_elemIPNS_12basic_stringIcNS_11char_traitsIcEENS_9allocatorIcEEEELi0ELb0EEC2B8ne180100IDnvEEOT_, symObjAddr: 0x8C4, symBinAddr: 0x1000048A0, symSize: 0x1C }
  - { offsetInCU: 0xAC57, offset: 0xAC57, size: 0x8, addend: 0x0, symName: __ZNSt3__122__compressed_pair_elemINS_9allocatorINS_12basic_stringIcNS_11char_traitsIcEENS1_IcEEEEEELi1ELb1EEC2B8ne180100ENS_18__default_init_tagE, symObjAddr: 0x8E0, symBinAddr: 0x1000048BC, symSize: 0x2C }
  - { offsetInCU: 0xAC8A, offset: 0xAC8A, size: 0x8, addend: 0x0, symName: __ZNSt3__19allocatorINS_12basic_stringIcNS_11char_traitsIcEENS0_IcEEEEEC2B8ne180100Ev, symObjAddr: 0x90C, symBinAddr: 0x1000048E8, symSize: 0x2C }
  - { offsetInCU: 0xACB3, offset: 0xACB3, size: 0x8, addend: 0x0, symName: __ZNSt3__116__non_trivial_ifILb1ENS_9allocatorINS_12basic_stringIcNS_11char_traitsIcEENS1_IcEEEEEEEC2B8ne180100Ev, symObjAddr: 0x938, symBinAddr: 0x100004914, symSize: 0x14 }
  - { offsetInCU: 0xACDC, offset: 0xACDC, size: 0x8, addend: 0x0, symName: __ZNSt3__112basic_stringIcNS_11char_traitsIcEENS_9allocatorIcEEEC2B8ne180100Ev, symObjAddr: 0x94C, symBinAddr: 0x100004928, symSize: 0x40 }
  - { offsetInCU: 0xAD0A, offset: 0xAD0A, size: 0x8, addend: 0x0, symName: __ZNSt3__117__compressed_pairINS_12basic_stringIcNS_11char_traitsIcEENS_9allocatorIcEEE5__repES5_EC1B8ne180100INS_16__value_init_tagENS_18__default_init_tagEEEOT_OT0_, symObjAddr: 0x98C, symBinAddr: 0x100004968, symSize: 0x3C }
  - { offsetInCU: 0xAD61, offset: 0xAD61, size: 0x8, addend: 0x0, symName: __ZNKSt3__112basic_stringIcNS_11char_traitsIcEENS_9allocatorIcEEE14__annotate_newB8ne180100Em, symObjAddr: 0x9C8, symBinAddr: 0x1000049A4, symSize: 0x14 }
  - { offsetInCU: 0xAD95, offset: 0xAD95, size: 0x8, addend: 0x0, symName: __ZNSt3__117__compressed_pairINS_12basic_stringIcNS_11char_traitsIcEENS_9allocatorIcEEE5__repES5_EC2B8ne180100INS_16__value_init_tagENS_18__default_init_tagEEEOT_OT0_, symObjAddr: 0x9DC, symBinAddr: 0x1000049B8, symSize: 0x3C }
  - { offsetInCU: 0xADEC, offset: 0xADEC, size: 0x8, addend: 0x0, symName: __ZNSt3__122__compressed_pair_elemINS_12basic_stringIcNS_11char_traitsIcEENS_9allocatorIcEEE5__repELi0ELb0EEC2B8ne180100ENS_16__value_init_tagE, symObjAddr: 0xA18, symBinAddr: 0x1000049F4, symSize: 0x20 }
  - { offsetInCU: 0xAE1F, offset: 0xAE1F, size: 0x8, addend: 0x0, symName: __ZNSt3__122__compressed_pair_elemINS_9allocatorIcEELi1ELb1EEC2B8ne180100ENS_18__default_init_tagE, symObjAddr: 0xA38, symBinAddr: 0x100004A14, symSize: 0x2C }
  - { offsetInCU: 0xAE52, offset: 0xAE52, size: 0x8, addend: 0x0, symName: __ZNSt3__19allocatorIcEC2B8ne180100Ev, symObjAddr: 0xA64, symBinAddr: 0x100004A40, symSize: 0x2C }
  - { offsetInCU: 0xAE7B, offset: 0xAE7B, size: 0x8, addend: 0x0, symName: __ZNSt3__116__non_trivial_ifILb1ENS_9allocatorIcEEEC2B8ne180100Ev, symObjAddr: 0xA90, symBinAddr: 0x100004A6C, symSize: 0x14 }
  - { offsetInCU: 0xAEA4, offset: 0xAEA4, size: 0x8, addend: 0x0, symName: __ZNSt3__112basic_stringIcNS_11char_traitsIcEENS_9allocatorIcEEE15__make_iteratorB8ne180100EPc, symObjAddr: 0xAA4, symBinAddr: 0x100004A80, symSize: 0x30 }
  - { offsetInCU: 0xAED8, offset: 0xAED8, size: 0x8, addend: 0x0, symName: __ZNSt3__112basic_stringIcNS_11char_traitsIcEENS_9allocatorIcEEE13__get_pointerB8ne180100Ev, symObjAddr: 0xAD4, symBinAddr: 0x100004AB0, symSize: 0x54 }
  - { offsetInCU: 0xAEFD, offset: 0xAEFD, size: 0x8, addend: 0x0, symName: __ZNSt3__111__wrap_iterIPcEC1B8ne180100ES1_, symObjAddr: 0xB28, symBinAddr: 0x100004B04, symSize: 0x34 }
  - { offsetInCU: 0xAF34, offset: 0xAF34, size: 0x8, addend: 0x0, symName: __ZNSt3__111__wrap_iterIPcEC2B8ne180100ES1_, symObjAddr: 0xB5C, symBinAddr: 0x100004B38, symSize: 0x20 }
  - { offsetInCU: 0xAF6B, offset: 0xAF6B, size: 0x8, addend: 0x0, symName: __ZNKSt3__112basic_stringIcNS_11char_traitsIcEENS_9allocatorIcEEE9__is_longB8ne180100Ev, symObjAddr: 0xB7C, symBinAddr: 0x100004B58, symSize: 0x94 }
  - { offsetInCU: 0xAF90, offset: 0xAF90, size: 0x8, addend: 0x0, symName: __ZNSt3__112basic_stringIcNS_11char_traitsIcEENS_9allocatorIcEEE18__get_long_pointerB8ne180100Ev, symObjAddr: 0xC10, symBinAddr: 0x100004BEC, symSize: 0x28 }
  - { offsetInCU: 0xAFB5, offset: 0xAFB5, size: 0x8, addend: 0x0, symName: __ZNSt3__112basic_stringIcNS_11char_traitsIcEENS_9allocatorIcEEE19__get_short_pointerB8ne180100Ev, symObjAddr: 0xC38, symBinAddr: 0x100004C14, symSize: 0x28 }
  - { offsetInCU: 0xAFDA, offset: 0xAFDA, size: 0x8, addend: 0x0, symName: __ZNKSt3__117__compressed_pairINS_12basic_stringIcNS_11char_traitsIcEENS_9allocatorIcEEE5__repES5_E5firstB8ne180100Ev, symObjAddr: 0xC6C, symBinAddr: 0x100004C48, symSize: 0x24 }
  - { offsetInCU: 0xAFFF, offset: 0xAFFF, size: 0x8, addend: 0x0, symName: __ZNKSt3__122__compressed_pair_elemINS_12basic_stringIcNS_11char_traitsIcEENS_9allocatorIcEEE5__repELi0ELb0EE5__getB8ne180100Ev, symObjAddr: 0xC90, symBinAddr: 0x100004C6C, symSize: 0x14 }
  - { offsetInCU: 0xB024, offset: 0xB024, size: 0x8, addend: 0x0, symName: __ZNSt3__117__compressed_pairINS_12basic_stringIcNS_11char_traitsIcEENS_9allocatorIcEEE5__repES5_E5firstB8ne180100Ev, symObjAddr: 0xCA4, symBinAddr: 0x100004C80, symSize: 0x24 }
  - { offsetInCU: 0xB049, offset: 0xB049, size: 0x8, addend: 0x0, symName: __ZNSt3__122__compressed_pair_elemINS_12basic_stringIcNS_11char_traitsIcEENS_9allocatorIcEEE5__repELi0ELb0EE5__getB8ne180100Ev, symObjAddr: 0xCC8, symBinAddr: 0x100004CA4, symSize: 0x14 }
  - { offsetInCU: 0xB06E, offset: 0xB06E, size: 0x8, addend: 0x0, symName: __ZNSt3__114pointer_traitsIPcE10pointer_toB8ne180100ERc, symObjAddr: 0xCDC, symBinAddr: 0x100004CB8, symSize: 0x14 }
  - { offsetInCU: 0xB091, offset: 0xB091, size: 0x8, addend: 0x0, symName: __ZNKSt3__112basic_stringIcNS_11char_traitsIcEENS_9allocatorIcEEE4sizeB8ne180100Ev, symObjAddr: 0xCF0, symBinAddr: 0x100004CCC, symSize: 0x54 }
  - { offsetInCU: 0xB0B6, offset: 0xB0B6, size: 0x8, addend: 0x0, symName: __ZNKSt3__112basic_stringIcNS_11char_traitsIcEENS_9allocatorIcEEE15__get_long_sizeB8ne180100Ev, symObjAddr: 0xD44, symBinAddr: 0x100004D20, symSize: 0x28 }
  - { offsetInCU: 0xB0DB, offset: 0xB0DB, size: 0x8, addend: 0x0, symName: __ZNKSt3__112basic_stringIcNS_11char_traitsIcEENS_9allocatorIcEEE16__get_short_sizeB8ne180100Ev, symObjAddr: 0xD6C, symBinAddr: 0x100004D48, symSize: 0x34 }
  - { offsetInCU: 0xB100, offset: 0xB100, size: 0x8, addend: 0x0, symName: __ZNKSt3__111__wrap_iterIPcE4baseB8ne180100Ev, symObjAddr: 0xDE8, symBinAddr: 0x100004DC4, symSize: 0x18 }
  - { offsetInCU: 0xB125, offset: 0xB125, size: 0x8, addend: 0x0, symName: __ZNSt3__16vectorINS_12basic_stringIcNS_11char_traitsIcEENS_9allocatorIcEEEENS4_IS6_EEE9__end_capB8ne180100Ev, symObjAddr: 0xE00, symBinAddr: 0x100004DDC, symSize: 0x28 }
  - { offsetInCU: 0xB14A, offset: 0xB14A, size: 0x8, addend: 0x0, symName: __ZNSt3__16vectorINS_12basic_stringIcNS_11char_traitsIcEENS_9allocatorIcEEEENS4_IS6_EEE22__construct_one_at_endB8ne180100IJRKS6_EEEvDpOT_, symObjAddr: 0xE28, symBinAddr: 0x100004E04, symSize: 0x98 }
  - { offsetInCU: 0xB197, offset: 0xB197, size: 0x8, addend: 0x0, symName: __ZNSt3__16vectorINS_12basic_stringIcNS_11char_traitsIcEENS_9allocatorIcEEEENS4_IS6_EEE21__push_back_slow_pathIRKS6_EEPS6_OT_, symObjAddr: 0xEC0, symBinAddr: 0x100004E9C, symSize: 0xF0 }
  - { offsetInCU: 0xB1F4, offset: 0xB1F4, size: 0x8, addend: 0x0, symName: __ZNSt3__117__compressed_pairIPNS_12basic_stringIcNS_11char_traitsIcEENS_9allocatorIcEEEENS4_IS6_EEE5firstB8ne180100Ev, symObjAddr: 0xFB0, symBinAddr: 0x100004F8C, symSize: 0x24 }
  - { offsetInCU: 0xB219, offset: 0xB219, size: 0x8, addend: 0x0, symName: __ZNSt3__122__compressed_pair_elemIPNS_12basic_stringIcNS_11char_traitsIcEENS_9allocatorIcEEEELi0ELb0EE5__getB8ne180100Ev, symObjAddr: 0xFD4, symBinAddr: 0x100004FB0, symSize: 0x14 }
  - { offsetInCU: 0xB257, offset: 0xB257, size: 0x8, addend: 0x0, symName: __ZNSt3__16vectorINS_12basic_stringIcNS_11char_traitsIcEENS_9allocatorIcEEEENS4_IS6_EEE21_ConstructTransactionC1B8ne180100ERS8_m, symObjAddr: 0xFE8, symBinAddr: 0x100004FC4, symSize: 0x3C }
  - { offsetInCU: 0xB29E, offset: 0xB29E, size: 0x8, addend: 0x0, symName: __ZNSt3__116allocator_traitsINS_9allocatorINS_12basic_stringIcNS_11char_traitsIcEENS1_IcEEEEEEE9constructB8ne180100IS6_JRKS6_EvEEvRS7_PT_DpOT0_, symObjAddr: 0x1024, symBinAddr: 0x100005000, symSize: 0x34 }
  - { offsetInCU: 0xB2F5, offset: 0xB2F5, size: 0x8, addend: 0x0, symName: __ZNSt3__16vectorINS_12basic_stringIcNS_11char_traitsIcEENS_9allocatorIcEEEENS4_IS6_EEE7__allocB8ne180100Ev, symObjAddr: 0x1058, symBinAddr: 0x100005034, symSize: 0x28 }
  - { offsetInCU: 0xB31A, offset: 0xB31A, size: 0x8, addend: 0x0, symName: __ZNSt3__16vectorINS_12basic_stringIcNS_11char_traitsIcEENS_9allocatorIcEEEENS4_IS6_EEE21_ConstructTransactionD1B8ne180100Ev, symObjAddr: 0x1094, symBinAddr: 0x100005070, symSize: 0x2C }
  - { offsetInCU: 0xB343, offset: 0xB343, size: 0x8, addend: 0x0, symName: __ZNSt3__16vectorINS_12basic_stringIcNS_11char_traitsIcEENS_9allocatorIcEEEENS4_IS6_EEE21_ConstructTransactionC2B8ne180100ERS8_m, symObjAddr: 0x10C0, symBinAddr: 0x10000509C, symSize: 0x4C }
  - { offsetInCU: 0xB38A, offset: 0xB38A, size: 0x8, addend: 0x0, symName: __ZNSt3__19allocatorINS_12basic_stringIcNS_11char_traitsIcEENS0_IcEEEEE9constructB8ne180100IS5_JRKS5_EEEvPT_DpOT0_, symObjAddr: 0x110C, symBinAddr: 0x1000050E8, symSize: 0x30 }
  - { offsetInCU: 0xB3DF, offset: 0xB3DF, size: 0x8, addend: 0x0, symName: __ZNSt3__117__compressed_pairIPNS_12basic_stringIcNS_11char_traitsIcEENS_9allocatorIcEEEENS4_IS6_EEE6secondB8ne180100Ev, symObjAddr: 0x113C, symBinAddr: 0x100005118, symSize: 0x24 }
  - { offsetInCU: 0xB404, offset: 0xB404, size: 0x8, addend: 0x0, symName: __ZNSt3__122__compressed_pair_elemINS_9allocatorINS_12basic_stringIcNS_11char_traitsIcEENS1_IcEEEEEELi1ELb1EE5__getB8ne180100Ev, symObjAddr: 0x1160, symBinAddr: 0x10000513C, symSize: 0x14 }
  - { offsetInCU: 0xB429, offset: 0xB429, size: 0x8, addend: 0x0, symName: __ZNSt3__16vectorINS_12basic_stringIcNS_11char_traitsIcEENS_9allocatorIcEEEENS4_IS6_EEE21_ConstructTransactionD2B8ne180100Ev, symObjAddr: 0x1174, symBinAddr: 0x100005150, symSize: 0x20 }
  - { offsetInCU: 0xB451, offset: 0xB451, size: 0x8, addend: 0x0, symName: __ZNKSt3__16vectorINS_12basic_stringIcNS_11char_traitsIcEENS_9allocatorIcEEEENS4_IS6_EEE11__recommendB8ne180100Em, symObjAddr: 0x1194, symBinAddr: 0x100005170, symSize: 0xB4 }
  - { offsetInCU: 0xB4A5, offset: 0xB4A5, size: 0x8, addend: 0x0, symName: __ZNSt3__114__split_bufferINS_12basic_stringIcNS_11char_traitsIcEENS_9allocatorIcEEEERNS4_IS6_EEEC1EmmS8_, symObjAddr: 0x1248, symBinAddr: 0x100005224, symSize: 0x44 }
  - { offsetInCU: 0xB4FA, offset: 0xB4FA, size: 0x8, addend: 0x0, symName: __ZNSt3__114__split_bufferINS_12basic_stringIcNS_11char_traitsIcEENS_9allocatorIcEEEERNS4_IS6_EEED1Ev, symObjAddr: 0x139C, symBinAddr: 0x100005378, symSize: 0x2C }
  - { offsetInCU: 0xB524, offset: 0xB524, size: 0x8, addend: 0x0, symName: __ZNKSt3__16vectorINS_12basic_stringIcNS_11char_traitsIcEENS_9allocatorIcEEEENS4_IS6_EEE8max_sizeEv, symObjAddr: 0x13C8, symBinAddr: 0x1000053A4, symSize: 0x74 }
  - { offsetInCU: 0xB54B, offset: 0xB54B, size: 0x8, addend: 0x0, symName: __ZNKSt3__16vectorINS_12basic_stringIcNS_11char_traitsIcEENS_9allocatorIcEEEENS4_IS6_EEE20__throw_length_errorB8ne180100Ev, symObjAddr: 0x143C, symBinAddr: 0x100005418, symSize: 0x1C }
  - { offsetInCU: 0xB570, offset: 0xB570, size: 0x8, addend: 0x0, symName: __ZNKSt3__16vectorINS_12basic_stringIcNS_11char_traitsIcEENS_9allocatorIcEEEENS4_IS6_EEE8capacityB8ne180100Ev, symObjAddr: 0x1458, symBinAddr: 0x100005434, symSize: 0x40 }
  - { offsetInCU: 0xB59F, offset: 0xB59F, size: 0x8, addend: 0x0, symName: __ZNSt3__116allocator_traitsINS_9allocatorINS_12basic_stringIcNS_11char_traitsIcEENS1_IcEEEEEEE8max_sizeB8ne180100IS7_vEEmRKS7_, symObjAddr: 0x14F0, symBinAddr: 0x1000054CC, symSize: 0x24 }
  - { offsetInCU: 0xB5CD, offset: 0xB5CD, size: 0x8, addend: 0x0, symName: __ZNKSt3__16vectorINS_12basic_stringIcNS_11char_traitsIcEENS_9allocatorIcEEEENS4_IS6_EEE7__allocB8ne180100Ev, symObjAddr: 0x1514, symBinAddr: 0x1000054F0, symSize: 0x28 }
  - { offsetInCU: 0xB5F2, offset: 0xB5F2, size: 0x8, addend: 0x0, symName: __ZNSt3__114numeric_limitsIlE3maxB8ne180100Ev, symObjAddr: 0x153C, symBinAddr: 0x100005518, symSize: 0x14 }
  - { offsetInCU: 0xB61A, offset: 0xB61A, size: 0x8, addend: 0x0, symName: __ZNKSt3__16__lessIvvEclB8ne180100ImmEEbRKT_RKT0_, symObjAddr: 0x15A4, symBinAddr: 0x100005580, symSize: 0x34 }
  - { offsetInCU: 0xB66D, offset: 0xB66D, size: 0x8, addend: 0x0, symName: __ZNKSt3__19allocatorINS_12basic_stringIcNS_11char_traitsIcEENS0_IcEEEEE8max_sizeB8ne180100Ev, symObjAddr: 0x15D8, symBinAddr: 0x1000055B4, symSize: 0x18 }
  - { offsetInCU: 0xB692, offset: 0xB692, size: 0x8, addend: 0x0, symName: __ZNKSt3__117__compressed_pairIPNS_12basic_stringIcNS_11char_traitsIcEENS_9allocatorIcEEEENS4_IS6_EEE6secondB8ne180100Ev, symObjAddr: 0x15F0, symBinAddr: 0x1000055CC, symSize: 0x24 }
  - { offsetInCU: 0xB6B7, offset: 0xB6B7, size: 0x8, addend: 0x0, symName: __ZNKSt3__122__compressed_pair_elemINS_9allocatorINS_12basic_stringIcNS_11char_traitsIcEENS1_IcEEEEEELi1ELb1EE5__getB8ne180100Ev, symObjAddr: 0x1614, symBinAddr: 0x1000055F0, symSize: 0x14 }
  - { offsetInCU: 0xB6DC, offset: 0xB6DC, size: 0x8, addend: 0x0, symName: __ZNSt3__123__libcpp_numeric_limitsIlLb1EE3maxB8ne180100Ev, symObjAddr: 0x1628, symBinAddr: 0x100005604, symSize: 0x8 }
  - { offsetInCU: 0xB6F0, offset: 0xB6F0, size: 0x8, addend: 0x0, symName: __ZNSt12length_errorC1B8ne180100EPKc, symObjAddr: 0x1694, symBinAddr: 0x100005670, symSize: 0x34 }
  - { offsetInCU: 0xB727, offset: 0xB727, size: 0x8, addend: 0x0, symName: __ZNSt12length_errorC2B8ne180100EPKc, symObjAddr: 0x16C8, symBinAddr: 0x1000056A4, symSize: 0x4C }
  - { offsetInCU: 0xB75E, offset: 0xB75E, size: 0x8, addend: 0x0, symName: __ZNKSt3__16vectorINS_12basic_stringIcNS_11char_traitsIcEENS_9allocatorIcEEEENS4_IS6_EEE9__end_capB8ne180100Ev, symObjAddr: 0x1714, symBinAddr: 0x1000056F0, symSize: 0x28 }
  - { offsetInCU: 0xB783, offset: 0xB783, size: 0x8, addend: 0x0, symName: __ZNKSt3__117__compressed_pairIPNS_12basic_stringIcNS_11char_traitsIcEENS_9allocatorIcEEEENS4_IS6_EEE5firstB8ne180100Ev, symObjAddr: 0x173C, symBinAddr: 0x100005718, symSize: 0x24 }
  - { offsetInCU: 0xB7A8, offset: 0xB7A8, size: 0x8, addend: 0x0, symName: __ZNKSt3__122__compressed_pair_elemIPNS_12basic_stringIcNS_11char_traitsIcEENS_9allocatorIcEEEELi0ELb0EE5__getB8ne180100Ev, symObjAddr: 0x1760, symBinAddr: 0x10000573C, symSize: 0x14 }
  - { offsetInCU: 0xB7CD, offset: 0xB7CD, size: 0x8, addend: 0x0, symName: __ZNSt3__114__split_bufferINS_12basic_stringIcNS_11char_traitsIcEENS_9allocatorIcEEEERNS4_IS6_EEEC2EmmS8_, symObjAddr: 0x17C8, symBinAddr: 0x1000057A4, symSize: 0xE0 }
  - { offsetInCU: 0xB840, offset: 0xB840, size: 0x8, addend: 0x0, symName: __ZNSt3__117__compressed_pairIPNS_12basic_stringIcNS_11char_traitsIcEENS_9allocatorIcEEEERNS4_IS6_EEEC1B8ne180100IDnS9_EEOT_OT0_, symObjAddr: 0x18A8, symBinAddr: 0x100005884, symSize: 0x3C }
  - { offsetInCU: 0xB897, offset: 0xB897, size: 0x8, addend: 0x0, symName: __ZNSt3__114__split_bufferINS_12basic_stringIcNS_11char_traitsIcEENS_9allocatorIcEEEERNS4_IS6_EEE7__allocB8ne180100Ev, symObjAddr: 0x1924, symBinAddr: 0x100005900, symSize: 0x28 }
  - { offsetInCU: 0xB8BC, offset: 0xB8BC, size: 0x8, addend: 0x0, symName: __ZNSt3__114__split_bufferINS_12basic_stringIcNS_11char_traitsIcEENS_9allocatorIcEEEERNS4_IS6_EEE9__end_capB8ne180100Ev, symObjAddr: 0x194C, symBinAddr: 0x100005928, symSize: 0x28 }
  - { offsetInCU: 0xB8E1, offset: 0xB8E1, size: 0x8, addend: 0x0, symName: __ZNSt3__117__compressed_pairIPNS_12basic_stringIcNS_11char_traitsIcEENS_9allocatorIcEEEERNS4_IS6_EEEC2B8ne180100IDnS9_EEOT_OT0_, symObjAddr: 0x1974, symBinAddr: 0x100005950, symSize: 0x48 }
  - { offsetInCU: 0xB938, offset: 0xB938, size: 0x8, addend: 0x0, symName: __ZNSt3__122__compressed_pair_elemIRNS_9allocatorINS_12basic_stringIcNS_11char_traitsIcEENS1_IcEEEEEELi1ELb0EEC2B8ne180100IS8_vEEOT_, symObjAddr: 0x19BC, symBinAddr: 0x100005998, symSize: 0x20 }
  - { offsetInCU: 0xB979, offset: 0xB979, size: 0x8, addend: 0x0, symName: __ZNSt3__19allocatorINS_12basic_stringIcNS_11char_traitsIcEENS0_IcEEEEE8allocateB8ne180100Em, symObjAddr: 0x19DC, symBinAddr: 0x1000059B8, symSize: 0x8C }
  - { offsetInCU: 0xB9AC, offset: 0xB9AC, size: 0x8, addend: 0x0, symName: __ZNSt3__117__compressed_pairIPNS_12basic_stringIcNS_11char_traitsIcEENS_9allocatorIcEEEERNS4_IS6_EEE6secondB8ne180100Ev, symObjAddr: 0x1AE8, symBinAddr: 0x100005AC4, symSize: 0x28 }
  - { offsetInCU: 0xB9D1, offset: 0xB9D1, size: 0x8, addend: 0x0, symName: __ZNSt3__122__compressed_pair_elemIRNS_9allocatorINS_12basic_stringIcNS_11char_traitsIcEENS1_IcEEEEEELi1ELb0EE5__getB8ne180100Ev, symObjAddr: 0x1B10, symBinAddr: 0x100005AEC, symSize: 0x18 }
  - { offsetInCU: 0xB9F6, offset: 0xB9F6, size: 0x8, addend: 0x0, symName: __ZNSt3__117__compressed_pairIPNS_12basic_stringIcNS_11char_traitsIcEENS_9allocatorIcEEEERNS4_IS6_EEE5firstB8ne180100Ev, symObjAddr: 0x1B28, symBinAddr: 0x100005B04, symSize: 0x24 }
  - { offsetInCU: 0xBA1B, offset: 0xBA1B, size: 0x8, addend: 0x0, symName: __ZNKSt3__16vectorINS_12basic_stringIcNS_11char_traitsIcEENS_9allocatorIcEEEENS4_IS6_EEE17__annotate_deleteB8ne180100Ev, symObjAddr: 0x1B4C, symBinAddr: 0x100005B28, symSize: 0x10 }
  - { offsetInCU: 0xBA40, offset: 0xBA40, size: 0x8, addend: 0x0, symName: __ZNSt3__116reverse_iteratorIPNS_12basic_stringIcNS_11char_traitsIcEENS_9allocatorIcEEEEEC1B8ne180100ES7_, symObjAddr: 0x1C90, symBinAddr: 0x100005C6C, symSize: 0x34 }
  - { offsetInCU: 0xBA77, offset: 0xBA77, size: 0x8, addend: 0x0, symName: __ZNKSt3__116reverse_iteratorIPNS_12basic_stringIcNS_11char_traitsIcEENS_9allocatorIcEEEEE4baseB8ne180100Ev, symObjAddr: 0x1CC4, symBinAddr: 0x100005CA0, symSize: 0x18 }
  - { offsetInCU: 0xBA9C, offset: 0xBA9C, size: 0x8, addend: 0x0, symName: __ZNKSt3__16vectorINS_12basic_stringIcNS_11char_traitsIcEENS_9allocatorIcEEEENS4_IS6_EEE14__annotate_newB8ne180100Em, symObjAddr: 0x1D18, symBinAddr: 0x100005CF4, symSize: 0x14 }
  - { offsetInCU: 0xBAD0, offset: 0xBAD0, size: 0x8, addend: 0x0, symName: __ZNSt3__129_AllocatorDestroyRangeReverseINS_9allocatorINS_12basic_stringIcNS_11char_traitsIcEENS1_IcEEEEEENS_16reverse_iteratorIPS6_EEEC1B8ne180100ERS7_RSA_SD_, symObjAddr: 0x1D78, symBinAddr: 0x100005D54, symSize: 0x44 }
  - { offsetInCU: 0xBB26, offset: 0xBB26, size: 0x8, addend: 0x0, symName: __ZNKSt3__116reverse_iteratorIPNS_12basic_stringIcNS_11char_traitsIcEENS_9allocatorIcEEEEEdeB8ne180100Ev, symObjAddr: 0x1E28, symBinAddr: 0x100005E04, symSize: 0x28 }
  - { offsetInCU: 0xBB59, offset: 0xBB59, size: 0x8, addend: 0x0, symName: __ZNSt3__116reverse_iteratorIPNS_12basic_stringIcNS_11char_traitsIcEENS_9allocatorIcEEEEEppB8ne180100Ev, symObjAddr: 0x1E50, symBinAddr: 0x100005E2C, symSize: 0x20 }
  - { offsetInCU: 0xBB7E, offset: 0xBB7E, size: 0x8, addend: 0x0, symName: __ZNSt3__128__exception_guard_exceptionsINS_29_AllocatorDestroyRangeReverseINS_9allocatorINS_12basic_stringIcNS_11char_traitsIcEENS2_IcEEEEEENS_16reverse_iteratorIPS7_EEEEE10__completeB8ne180100Ev, symObjAddr: 0x1E70, symBinAddr: 0x100005E4C, symSize: 0x1C }
  - { offsetInCU: 0xBBA3, offset: 0xBBA3, size: 0x8, addend: 0x0, symName: __ZNSt3__128__exception_guard_exceptionsINS_29_AllocatorDestroyRangeReverseINS_9allocatorINS_12basic_stringIcNS_11char_traitsIcEENS2_IcEEEEEENS_16reverse_iteratorIPS7_EEEEED1B8ne180100Ev, symObjAddr: 0x1E8C, symBinAddr: 0x100005E68, symSize: 0x2C }
  - { offsetInCU: 0xBBCC, offset: 0xBBCC, size: 0x8, addend: 0x0, symName: __ZNSt3__128__exception_guard_exceptionsINS_29_AllocatorDestroyRangeReverseINS_9allocatorINS_12basic_stringIcNS_11char_traitsIcEENS2_IcEEEEEENS_16reverse_iteratorIPS7_EEEEEC1B8ne180100ESC_, symObjAddr: 0x1EB8, symBinAddr: 0x100005E94, symSize: 0x34 }
  - { offsetInCU: 0xBC04, offset: 0xBC04, size: 0x8, addend: 0x0, symName: __ZNSt3__128__exception_guard_exceptionsINS_29_AllocatorDestroyRangeReverseINS_9allocatorINS_12basic_stringIcNS_11char_traitsIcEENS2_IcEEEEEENS_16reverse_iteratorIPS7_EEEEEC2B8ne180100ESC_, symObjAddr: 0x1EEC, symBinAddr: 0x100005EC8, symSize: 0x30 }
  - { offsetInCU: 0xBC3C, offset: 0xBC3C, size: 0x8, addend: 0x0, symName: __ZNSt3__129_AllocatorDestroyRangeReverseINS_9allocatorINS_12basic_stringIcNS_11char_traitsIcEENS1_IcEEEEEENS_16reverse_iteratorIPS6_EEEC2B8ne180100ERS7_RSA_SD_, symObjAddr: 0x1F1C, symBinAddr: 0x100005EF8, symSize: 0x38 }
  - { offsetInCU: 0xBC97, offset: 0xBC97, size: 0x8, addend: 0x0, symName: __ZNSt3__119__to_address_helperINS_16reverse_iteratorIPNS_12basic_stringIcNS_11char_traitsIcEENS_9allocatorIcEEEEEEvE6__callB8ne180100ERKS9_, symObjAddr: 0x1F54, symBinAddr: 0x100005F30, symSize: 0x4C }
  - { offsetInCU: 0xBCBA, offset: 0xBCBA, size: 0x8, addend: 0x0, symName: __ZNKSt3__116reverse_iteratorIPNS_12basic_stringIcNS_11char_traitsIcEENS_9allocatorIcEEEEEptB8ne180100Ev, symObjAddr: 0x1FA0, symBinAddr: 0x100005F7C, symSize: 0x24 }
  - { offsetInCU: 0xBCDF, offset: 0xBCDF, size: 0x8, addend: 0x0, symName: __ZNSt3__128__exception_guard_exceptionsINS_29_AllocatorDestroyRangeReverseINS_9allocatorINS_12basic_stringIcNS_11char_traitsIcEENS2_IcEEEEEENS_16reverse_iteratorIPS7_EEEEED2B8ne180100Ev, symObjAddr: 0x1FC4, symBinAddr: 0x100005FA0, symSize: 0x48 }
  - { offsetInCU: 0xBD08, offset: 0xBD08, size: 0x8, addend: 0x0, symName: __ZNKSt3__129_AllocatorDestroyRangeReverseINS_9allocatorINS_12basic_stringIcNS_11char_traitsIcEENS1_IcEEEEEENS_16reverse_iteratorIPS6_EEEclB8ne180100Ev, symObjAddr: 0x200C, symBinAddr: 0x100005FE8, symSize: 0xB4 }
  - { offsetInCU: 0xBD2E, offset: 0xBD2E, size: 0x8, addend: 0x0, symName: __ZNSt3__116reverse_iteratorINS0_IPNS_12basic_stringIcNS_11char_traitsIcEENS_9allocatorIcEEEEEEEC1B8ne180100ES8_, symObjAddr: 0x2130, symBinAddr: 0x10000610C, symSize: 0x3C }
  - { offsetInCU: 0xBD65, offset: 0xBD65, size: 0x8, addend: 0x0, symName: __ZNSt3__116allocator_traitsINS_9allocatorINS_12basic_stringIcNS_11char_traitsIcEENS1_IcEEEEEEE7destroyB8ne180100IS6_vEEvRS7_PT_, symObjAddr: 0x21CC, symBinAddr: 0x1000061A8, symSize: 0x2C }
  - { offsetInCU: 0xBDA2, offset: 0xBDA2, size: 0x8, addend: 0x0, symName: __ZNSt3__116reverse_iteratorINS0_IPNS_12basic_stringIcNS_11char_traitsIcEENS_9allocatorIcEEEEEEEppB8ne180100Ev, symObjAddr: 0x221C, symBinAddr: 0x1000061F8, symSize: 0x30 }
  - { offsetInCU: 0xBDC7, offset: 0xBDC7, size: 0x8, addend: 0x0, symName: __ZNKSt3__116reverse_iteratorINS0_IPNS_12basic_stringIcNS_11char_traitsIcEENS_9allocatorIcEEEEEEE4baseB8ne180100Ev, symObjAddr: 0x224C, symBinAddr: 0x100006228, symSize: 0x24 }
  - { offsetInCU: 0xBDEC, offset: 0xBDEC, size: 0x8, addend: 0x0, symName: __ZNSt3__19allocatorINS_12basic_stringIcNS_11char_traitsIcEENS0_IcEEEEE7destroyB8ne180100EPS5_, symObjAddr: 0x2270, symBinAddr: 0x10000624C, symSize: 0x28 }
  - { offsetInCU: 0xBE24, offset: 0xBE24, size: 0x8, addend: 0x0, symName: __ZNSt3__119__to_address_helperINS_16reverse_iteratorINS1_IPNS_12basic_stringIcNS_11char_traitsIcEENS_9allocatorIcEEEEEEEEvE6__callB8ne180100ERKSA_, symObjAddr: 0x2298, symBinAddr: 0x100006274, symSize: 0x4C }
  - { offsetInCU: 0xBE47, offset: 0xBE47, size: 0x8, addend: 0x0, symName: __ZNKSt3__116reverse_iteratorINS0_IPNS_12basic_stringIcNS_11char_traitsIcEENS_9allocatorIcEEEEEEEptB8ne180100Ev, symObjAddr: 0x22E4, symBinAddr: 0x1000062C0, symSize: 0x24 }
  - { offsetInCU: 0xBE6C, offset: 0xBE6C, size: 0x8, addend: 0x0, symName: __ZNKSt3__116reverse_iteratorINS0_IPNS_12basic_stringIcNS_11char_traitsIcEENS_9allocatorIcEEEEEEEdeB8ne180100Ev, symObjAddr: 0x2308, symBinAddr: 0x1000062E4, symSize: 0x34 }
  - { offsetInCU: 0xBE9F, offset: 0xBE9F, size: 0x8, addend: 0x0, symName: __ZNSt3__116reverse_iteratorIPNS_12basic_stringIcNS_11char_traitsIcEENS_9allocatorIcEEEEEmmB8ne180100Ev, symObjAddr: 0x233C, symBinAddr: 0x100006318, symSize: 0x20 }
  - { offsetInCU: 0xBEC4, offset: 0xBEC4, size: 0x8, addend: 0x0, symName: __ZNSt3__116reverse_iteratorINS0_IPNS_12basic_stringIcNS_11char_traitsIcEENS_9allocatorIcEEEEEEEC2B8ne180100ES8_, symObjAddr: 0x235C, symBinAddr: 0x100006338, symSize: 0x2C }
  - { offsetInCU: 0xBEFB, offset: 0xBEFB, size: 0x8, addend: 0x0, symName: __ZNSt3__116reverse_iteratorIPNS_12basic_stringIcNS_11char_traitsIcEENS_9allocatorIcEEEEEC2B8ne180100ES7_, symObjAddr: 0x2388, symBinAddr: 0x100006364, symSize: 0x28 }
  - { offsetInCU: 0xBF32, offset: 0xBF32, size: 0x8, addend: 0x0, symName: __ZNSt3__114__split_bufferINS_12basic_stringIcNS_11char_traitsIcEENS_9allocatorIcEEEERNS4_IS6_EEED2Ev, symObjAddr: 0x23B0, symBinAddr: 0x10000638C, symSize: 0x80 }
  - { offsetInCU: 0xBF5D, offset: 0xBF5D, size: 0x8, addend: 0x0, symName: __ZNSt3__114__split_bufferINS_12basic_stringIcNS_11char_traitsIcEENS_9allocatorIcEEEERNS4_IS6_EEE5clearB8ne180100Ev, symObjAddr: 0x2430, symBinAddr: 0x10000640C, symSize: 0x28 }
  - { offsetInCU: 0xBF82, offset: 0xBF82, size: 0x8, addend: 0x0, symName: __ZNSt3__116allocator_traitsINS_9allocatorINS_12basic_stringIcNS_11char_traitsIcEENS1_IcEEEEEEE10deallocateB8ne180100ERS7_PS6_m, symObjAddr: 0x2458, symBinAddr: 0x100006434, symSize: 0x34 }
  - { offsetInCU: 0xBFC4, offset: 0xBFC4, size: 0x8, addend: 0x0, symName: __ZNKSt3__114__split_bufferINS_12basic_stringIcNS_11char_traitsIcEENS_9allocatorIcEEEERNS4_IS6_EEE8capacityB8ne180100Ev, symObjAddr: 0x248C, symBinAddr: 0x100006468, symSize: 0x40 }
  - { offsetInCU: 0xBFE9, offset: 0xBFE9, size: 0x8, addend: 0x0, symName: __ZNSt3__114__split_bufferINS_12basic_stringIcNS_11char_traitsIcEENS_9allocatorIcEEEERNS4_IS6_EEE17__destruct_at_endB8ne180100EPS6_, symObjAddr: 0x24CC, symBinAddr: 0x1000064A8, symSize: 0x2C }
  - { offsetInCU: 0xC01B, offset: 0xC01B, size: 0x8, addend: 0x0, symName: __ZNSt3__114__split_bufferINS_12basic_stringIcNS_11char_traitsIcEENS_9allocatorIcEEEERNS4_IS6_EEE17__destruct_at_endB8ne180100EPS6_NS_17integral_constantIbLb0EEE, symObjAddr: 0x24F8, symBinAddr: 0x1000064D4, symSize: 0x94 }
  - { offsetInCU: 0xC05A, offset: 0xC05A, size: 0x8, addend: 0x0, symName: __ZNSt3__19allocatorINS_12basic_stringIcNS_11char_traitsIcEENS0_IcEEEEE10deallocateB8ne180100EPS5_m, symObjAddr: 0x258C, symBinAddr: 0x100006568, symSize: 0x74 }
  - { offsetInCU: 0xC09B, offset: 0xC09B, size: 0x8, addend: 0x0, symName: __ZNKSt3__114__split_bufferINS_12basic_stringIcNS_11char_traitsIcEENS_9allocatorIcEEEERNS4_IS6_EEE9__end_capB8ne180100Ev, symObjAddr: 0x267C, symBinAddr: 0x100006658, symSize: 0x28 }
  - { offsetInCU: 0xC0C0, offset: 0xC0C0, size: 0x8, addend: 0x0, symName: __ZNKSt3__117__compressed_pairIPNS_12basic_stringIcNS_11char_traitsIcEENS_9allocatorIcEEEERNS4_IS6_EEE5firstB8ne180100Ev, symObjAddr: 0x26A4, symBinAddr: 0x100006680, symSize: 0x24 }
  - { offsetInCU: 0xC0E5, offset: 0xC0E5, size: 0x8, addend: 0x0, symName: __ZNSt3__111__wrap_iterIPNS_12basic_stringIcNS_11char_traitsIcEENS_9allocatorIcEEEEEmmB8ne180100Ev, symObjAddr: 0x27FC, symBinAddr: 0x1000067D8, symSize: 0x20 }
  - { offsetInCU: 0xC10A, offset: 0xC10A, size: 0x8, addend: 0x0, symName: __ZNSt3__18_IterOpsINS_17_ClassicAlgPolicyEE9iter_swapB8ne180100IRNS_11__wrap_iterIPNS_12basic_stringIcNS_11char_traitsIcEENS_9allocatorIcEEEEEESD_EEvOT_OT0_, symObjAddr: 0x281C, symBinAddr: 0x1000067F8, symSize: 0x44 }
  - { offsetInCU: 0xC14D, offset: 0xC14D, size: 0x8, addend: 0x0, symName: __ZNSt3__111__wrap_iterIPNS_12basic_stringIcNS_11char_traitsIcEENS_9allocatorIcEEEEEppB8ne180100Ev, symObjAddr: 0x2860, symBinAddr: 0x10000683C, symSize: 0x20 }
  - { offsetInCU: 0xC172, offset: 0xC172, size: 0x8, addend: 0x0, symName: __ZNKSt3__111__wrap_iterIPNS_12basic_stringIcNS_11char_traitsIcEENS_9allocatorIcEEEEE4baseB8ne180100Ev, symObjAddr: 0x28C8, symBinAddr: 0x1000068A4, symSize: 0x18 }
  - { offsetInCU: 0xC197, offset: 0xC197, size: 0x8, addend: 0x0, symName: __ZNKSt3__111__wrap_iterIPNS_12basic_stringIcNS_11char_traitsIcEENS_9allocatorIcEEEEEdeB8ne180100Ev, symObjAddr: 0x295C, symBinAddr: 0x100006938, symSize: 0x18 }
  - { offsetInCU: 0xC1BB, offset: 0xC1BB, size: 0x8, addend: 0x0, symName: __ZNSt3__112basic_stringIcNS_11char_traitsIcEENS_9allocatorIcEEE4swapB8ne180100ERS5_, symObjAddr: 0x2974, symBinAddr: 0x100006950, symSize: 0x124 }
  - { offsetInCU: 0xC1F1, offset: 0xC1F1, size: 0x8, addend: 0x0, symName: __ZNKSt3__112basic_stringIcNS_11char_traitsIcEENS_9allocatorIcEEE17__annotate_deleteB8ne180100Ev, symObjAddr: 0x2A98, symBinAddr: 0x100006A74, symSize: 0x10 }
  - { offsetInCU: 0xC216, offset: 0xC216, size: 0x8, addend: 0x0, symName: __ZNSt3__112basic_stringIcNS_11char_traitsIcEENS_9allocatorIcEEE7__allocB8ne180100Ev, symObjAddr: 0x2B28, symBinAddr: 0x100006B04, symSize: 0x24 }
  - { offsetInCU: 0xC23B, offset: 0xC23B, size: 0x8, addend: 0x0, symName: __ZNSt3__117__compressed_pairINS_12basic_stringIcNS_11char_traitsIcEENS_9allocatorIcEEE5__repES5_E6secondB8ne180100Ev, symObjAddr: 0x2B60, symBinAddr: 0x100006B3C, symSize: 0x24 }
  - { offsetInCU: 0xC260, offset: 0xC260, size: 0x8, addend: 0x0, symName: __ZNSt3__122__compressed_pair_elemINS_9allocatorIcEELi1ELb1EE5__getB8ne180100Ev, symObjAddr: 0x2B84, symBinAddr: 0x100006B60, symSize: 0x14 }
  - { offsetInCU: 0xC285, offset: 0xC285, size: 0x8, addend: 0x0, symName: __ZNSt3__16vectorINS_12basic_stringIcNS_11char_traitsIcEENS_9allocatorIcEEEENS4_IS6_EEE11__make_iterB8ne180100EPS6_, symObjAddr: 0x2B98, symBinAddr: 0x100006B74, symSize: 0x30 }
  - { offsetInCU: 0xC2B9, offset: 0xC2B9, size: 0x8, addend: 0x0, symName: __ZNSt3__111__wrap_iterIPNS_12basic_stringIcNS_11char_traitsIcEENS_9allocatorIcEEEEEC1B8ne180100ES7_, symObjAddr: 0x2BC8, symBinAddr: 0x100006BA4, symSize: 0x34 }
  - { offsetInCU: 0xC2F0, offset: 0xC2F0, size: 0x8, addend: 0x0, symName: __ZNSt3__111__wrap_iterIPNS_12basic_stringIcNS_11char_traitsIcEENS_9allocatorIcEEEEEC2B8ne180100ES7_, symObjAddr: 0x2BFC, symBinAddr: 0x100006BD8, symSize: 0x20 }
  - { offsetInCU: 0xC327, offset: 0xC327, size: 0x8, addend: 0x0, symName: __ZNSt3__112basic_stringIcNS_11char_traitsIcEENS_9allocatorIcEEE6appendB8ne180100ERKS5_, symObjAddr: 0x2C1C, symBinAddr: 0x100006BF8, symSize: 0x4C }
  - { offsetInCU: 0xC35B, offset: 0xC35B, size: 0x8, addend: 0x0, symName: __ZNKSt3__112basic_stringIcNS_11char_traitsIcEENS_9allocatorIcEEE4dataB8ne180100Ev, symObjAddr: 0x2C68, symBinAddr: 0x100006C44, symSize: 0x28 }
  - { offsetInCU: 0xC380, offset: 0xC380, size: 0x8, addend: 0x0, symName: __ZNKSt3__112basic_stringIcNS_11char_traitsIcEENS_9allocatorIcEEE13__get_pointerB8ne180100Ev, symObjAddr: 0x2CA4, symBinAddr: 0x100006C80, symSize: 0x54 }
  - { offsetInCU: 0xC3A5, offset: 0xC3A5, size: 0x8, addend: 0x0, symName: __ZNKSt3__112basic_stringIcNS_11char_traitsIcEENS_9allocatorIcEEE18__get_long_pointerB8ne180100Ev, symObjAddr: 0x2CF8, symBinAddr: 0x100006CD4, symSize: 0x28 }
  - { offsetInCU: 0xC3CA, offset: 0xC3CA, size: 0x8, addend: 0x0, symName: __ZNKSt3__112basic_stringIcNS_11char_traitsIcEENS_9allocatorIcEEE19__get_short_pointerB8ne180100Ev, symObjAddr: 0x2D20, symBinAddr: 0x100006CFC, symSize: 0x28 }
  - { offsetInCU: 0xC3EF, offset: 0xC3EF, size: 0x8, addend: 0x0, symName: __ZNSt3__114pointer_traitsIPKcE10pointer_toB8ne180100ERS1_, symObjAddr: 0x2D48, symBinAddr: 0x100006D24, symSize: 0x14 }
  - { offsetInCU: 0xC412, offset: 0xC412, size: 0x8, addend: 0x0, symName: __ZNSt3__16vectorINS_12basic_stringIcNS_11char_traitsIcEENS_9allocatorIcEEEENS4_IS6_EEED2B8ne180100Ev, symObjAddr: 0x2D5C, symBinAddr: 0x100006D38, symSize: 0x3C }
  - { offsetInCU: 0xC43B, offset: 0xC43B, size: 0x8, addend: 0x0, symName: __ZNSt3__16vectorINS_12basic_stringIcNS_11char_traitsIcEENS_9allocatorIcEEEENS4_IS6_EEE16__destroy_vectorC1B8ne180100ERS8_, symObjAddr: 0x2D98, symBinAddr: 0x100006D74, symSize: 0x34 }
  - { offsetInCU: 0xC473, offset: 0xC473, size: 0x8, addend: 0x0, symName: __ZNSt3__16vectorINS_12basic_stringIcNS_11char_traitsIcEENS_9allocatorIcEEEENS4_IS6_EEE16__destroy_vectorclB8ne180100Ev, symObjAddr: 0x2DCC, symBinAddr: 0x100006DA8, symSize: 0x90 }
  - { offsetInCU: 0xC498, offset: 0xC498, size: 0x8, addend: 0x0, symName: __ZNSt3__16vectorINS_12basic_stringIcNS_11char_traitsIcEENS_9allocatorIcEEEENS4_IS6_EEE16__destroy_vectorC2B8ne180100ERS8_, symObjAddr: 0x2E5C, symBinAddr: 0x100006E38, symSize: 0x20 }
  - { offsetInCU: 0xC4D0, offset: 0xC4D0, size: 0x8, addend: 0x0, symName: __ZNSt3__16vectorINS_12basic_stringIcNS_11char_traitsIcEENS_9allocatorIcEEEENS4_IS6_EEE7__clearB8ne180100Ev, symObjAddr: 0x2E7C, symBinAddr: 0x100006E58, symSize: 0x28 }
  - { offsetInCU: 0xC4F5, offset: 0xC4F5, size: 0x8, addend: 0x0, symName: __ZNSt3__16vectorINS_12basic_stringIcNS_11char_traitsIcEENS_9allocatorIcEEEENS4_IS6_EEE22__base_destruct_at_endB8ne180100EPS6_, symObjAddr: 0x2EA4, symBinAddr: 0x100006E80, symSize: 0xA0 }
  - { offsetInCU: 0xC538, offset: 0xC538, size: 0x8, addend: 0x0, symName: __ZNSt3__112basic_stringIcNS_11char_traitsIcEENS_9allocatorIcEEEC2B8ne180100ILi0EEEPKc, symObjAddr: 0x2F44, symBinAddr: 0x100006F20, symSize: 0x58 }
  - { offsetInCU: 0xC576, offset: 0xC576, size: 0x8, addend: 0x0, symName: __ZNSt3__117__compressed_pairINS_12basic_stringIcNS_11char_traitsIcEENS_9allocatorIcEEE5__repES5_EC1B8ne180100INS_18__default_init_tagESA_EEOT_OT0_, symObjAddr: 0x2F9C, symBinAddr: 0x100006F78, symSize: 0x3C }
  - { offsetInCU: 0xC5CD, offset: 0xC5CD, size: 0x8, addend: 0x0, symName: __ZNSt3__111char_traitsIcE6lengthB8ne180100EPKc, symObjAddr: 0x2FD8, symBinAddr: 0x100006FB4, symSize: 0x48 }
  - { offsetInCU: 0xC5F0, offset: 0xC5F0, size: 0x8, addend: 0x0, symName: __ZNSt3__117__compressed_pairINS_12basic_stringIcNS_11char_traitsIcEENS_9allocatorIcEEE5__repES5_EC2B8ne180100INS_18__default_init_tagESA_EEOT_OT0_, symObjAddr: 0x3020, symBinAddr: 0x100006FFC, symSize: 0x3C }
  - { offsetInCU: 0xC647, offset: 0xC647, size: 0x8, addend: 0x0, symName: __ZNSt3__122__compressed_pair_elemINS_12basic_stringIcNS_11char_traitsIcEENS_9allocatorIcEEE5__repELi0ELb0EEC2B8ne180100ENS_18__default_init_tagE, symObjAddr: 0x305C, symBinAddr: 0x100007038, symSize: 0x14 }
  - { offsetInCU: 0xC698, offset: 0xC698, size: 0x8, addend: 0x0, symName: __ZNKSt3__113basic_ostreamIcNS_11char_traitsIcEEE6sentrycvbB8ne180100Ev, symObjAddr: 0x3288, symBinAddr: 0x100007264, symSize: 0x1C }
  - { offsetInCU: 0xC6BD, offset: 0xC6BD, size: 0x8, addend: 0x0, symName: __ZNSt3__119ostreambuf_iteratorIcNS_11char_traitsIcEEEC1B8ne180100ERNS_13basic_ostreamIcS2_EE, symObjAddr: 0x34EC, symBinAddr: 0x1000074C8, symSize: 0x34 }
  - { offsetInCU: 0xC6F4, offset: 0xC6F4, size: 0x8, addend: 0x0, symName: __ZNKSt3__18ios_base5flagsB8ne180100Ev, symObjAddr: 0x3520, symBinAddr: 0x1000074FC, symSize: 0x18 }
  - { offsetInCU: 0xC71A, offset: 0xC71A, size: 0x8, addend: 0x0, symName: __ZNKSt3__19basic_iosIcNS_11char_traitsIcEEE4fillB8ne180100Ev, symObjAddr: 0x3538, symBinAddr: 0x100007514, symSize: 0x64 }
  - { offsetInCU: 0xC741, offset: 0xC741, size: 0x8, addend: 0x0, symName: __ZNKSt3__119ostreambuf_iteratorIcNS_11char_traitsIcEEE6failedB8ne180100Ev, symObjAddr: 0x359C, symBinAddr: 0x100007578, symSize: 0x24 }
  - { offsetInCU: 0xC766, offset: 0xC766, size: 0x8, addend: 0x0, symName: __ZNSt3__19basic_iosIcNS_11char_traitsIcEEE8setstateB8ne180100Ej, symObjAddr: 0x35C0, symBinAddr: 0x10000759C, symSize: 0x2C }
  - { offsetInCU: 0xC79A, offset: 0xC79A, size: 0x8, addend: 0x0, symName: __ZNKSt3__18ios_base5widthB8ne180100Ev, symObjAddr: 0x35EC, symBinAddr: 0x1000075C8, symSize: 0x18 }
  - { offsetInCU: 0xC7C1, offset: 0xC7C1, size: 0x8, addend: 0x0, symName: __ZNSt3__115basic_streambufIcNS_11char_traitsIcEEE5sputnB8ne180100EPKcl, symObjAddr: 0x3604, symBinAddr: 0x1000075E0, symSize: 0x3C }
  - { offsetInCU: 0xC802, offset: 0xC802, size: 0x8, addend: 0x0, symName: __ZNSt3__112basic_stringIcNS_11char_traitsIcEENS_9allocatorIcEEEC1B8ne180100Emc, symObjAddr: 0x3640, symBinAddr: 0x10000761C, symSize: 0x3C }
  - { offsetInCU: 0xC849, offset: 0xC849, size: 0x8, addend: 0x0, symName: __ZNSt3__18ios_base5widthB8ne180100El, symObjAddr: 0x367C, symBinAddr: 0x100007658, symSize: 0x2C }
  - { offsetInCU: 0xC88E, offset: 0xC88E, size: 0x8, addend: 0x0, symName: __ZNSt3__112basic_stringIcNS_11char_traitsIcEENS_9allocatorIcEEEC2B8ne180100Emc, symObjAddr: 0x36A8, symBinAddr: 0x100007684, symSize: 0x4C }
  - { offsetInCU: 0xC8D5, offset: 0xC8D5, size: 0x8, addend: 0x0, symName: __ZNSt3__119ostreambuf_iteratorIcNS_11char_traitsIcEEEC2B8ne180100ERNS_13basic_ostreamIcS2_EE, symObjAddr: 0x36F4, symBinAddr: 0x1000076D0, symSize: 0x68 }
  - { offsetInCU: 0xC90B, offset: 0xC90B, size: 0x8, addend: 0x0, symName: __ZNKSt3__19basic_iosIcNS_11char_traitsIcEEE5rdbufB8ne180100Ev, symObjAddr: 0x375C, symBinAddr: 0x100007738, symSize: 0x24 }
  - { offsetInCU: 0xC932, offset: 0xC932, size: 0x8, addend: 0x0, symName: __ZNKSt3__18ios_base5rdbufB8ne180100Ev, symObjAddr: 0x3780, symBinAddr: 0x10000775C, symSize: 0x18 }
  - { offsetInCU: 0xC957, offset: 0xC957, size: 0x8, addend: 0x0, symName: __ZNSt3__111char_traitsIcE11eq_int_typeB8ne180100Eii, symObjAddr: 0x3798, symBinAddr: 0x100007774, symSize: 0x28 }
  - { offsetInCU: 0xC98A, offset: 0xC98A, size: 0x8, addend: 0x0, symName: __ZNSt3__111char_traitsIcE3eofB8ne180100Ev, symObjAddr: 0x37C0, symBinAddr: 0x10000779C, symSize: 0x8 }
  - { offsetInCU: 0xC99D, offset: 0xC99D, size: 0x8, addend: 0x0, symName: __ZNKSt3__19basic_iosIcNS_11char_traitsIcEEE5widenB8ne180100Ec, symObjAddr: 0x37C8, symBinAddr: 0x1000077A4, symSize: 0x8C }
  - { offsetInCU: 0xCA0A, offset: 0xCA0A, size: 0x8, addend: 0x0, symName: __ZNKSt3__15ctypeIcE5widenB8ne180100Ec, symObjAddr: 0x3880, symBinAddr: 0x10000785C, symSize: 0x38 }
  - { offsetInCU: 0xCA3D, offset: 0xCA3D, size: 0x8, addend: 0x0, symName: __ZNSt3__18ios_base8setstateB8ne180100Ej, symObjAddr: 0x38B8, symBinAddr: 0x100007894, symSize: 0x34 }
...
