---
triple:          'arm64-apple-darwin'
binary-path:     '/Volumes/Samsung/coding/Project_2024/CrackYourPlacement/CrackYourPlacement/oops/output/permuteone'
relocations:
  - { offsetInCU: 0x57, offset: 0x57, size: 0x8, addend: 0x0, symName: _dp, symObjAddr: 0x1CF40, symBinAddr: 0x100008000, symSize: 0x0 }
  - { offsetInCU: 0x5810, offset: 0x5810, size: 0x8, addend: 0x0, symName: __ZNSt3__14endlB8ne180100IcNS_11char_traitsIcEEEERNS_13basic_ostreamIT_T0_EES7_, symObjAddr: 0x30C, symBinAddr: 0x100002BB0, symSize: 0x58 }
  - { offsetInCU: 0x5850, offset: 0x5850, size: 0x8, addend: 0x0, symName: __ZNSt3__122__make_exception_guardB8ne180100INS_6vectorIxNS_9allocatorIxEEE16__destroy_vectorEEENS_28__exception_guard_exceptionsIT_EES7_, symObjAddr: 0x4C0, symBinAddr: 0x100002D64, symSize: 0x40 }
  - { offsetInCU: 0x5885, offset: 0x5885, size: 0x8, addend: 0x0, symName: __ZNSt3__119__allocate_at_leastB8ne180100INS_9allocatorIxEEEENS_19__allocation_resultINS_16allocator_traitsIT_E7pointerEEERS5_m, symObjAddr: 0x8DC, symBinAddr: 0x100003180, symSize: 0x40 }
  - { offsetInCU: 0x58C8, offset: 0x58C8, size: 0x8, addend: 0x0, symName: __ZNSt3__13minB8ne180100ImEERKT_S3_S3_, symObjAddr: 0x980, symBinAddr: 0x100003224, symSize: 0x2C }
  - { offsetInCU: 0x5B0C, offset: 0x5B0C, size: 0x8, addend: 0x0, symName: __ZNSt3__13minB8ne180100ImNS_6__lessIvvEEEERKT_S5_S5_T0_, symObjAddr: 0xA0C, symBinAddr: 0x1000032B0, symSize: 0x54 }
  - { offsetInCU: 0x5BAB, offset: 0x5BAB, size: 0x8, addend: 0x0, symName: __ZNSt3__120__throw_length_errorB8ne180100EPKc, symObjAddr: 0xAE8, symBinAddr: 0x10000338C, symSize: 0x64 }
  - { offsetInCU: 0x5BD3, offset: 0x5BD3, size: 0x8, addend: 0x0, symName: __ZNSt3__130__libcpp_is_constant_evaluatedB8ne180100Ev, symObjAddr: 0xC84, symBinAddr: 0x100003528, symSize: 0xC }
  - { offsetInCU: 0x5BF0, offset: 0x5BF0, size: 0x8, addend: 0x0, symName: __ZNSt3__117__libcpp_allocateB8ne180100Emm, symObjAddr: 0xC90, symBinAddr: 0x100003534, symSize: 0x28 }
  - { offsetInCU: 0x5C2D, offset: 0x5C2D, size: 0x8, addend: 0x0, symName: __ZNSt3__121__libcpp_operator_newB8ne180100IJmEEEPvDpT_, symObjAddr: 0xCB8, symBinAddr: 0x10000355C, symSize: 0x24 }
  - { offsetInCU: 0x5C66, offset: 0x5C66, size: 0x8, addend: 0x0, symName: __ZNSt3__112__to_addressB8ne180100IxEEPT_S2_, symObjAddr: 0xDBC, symBinAddr: 0x100003660, symSize: 0x14 }
  - { offsetInCU: 0x5C9B, offset: 0x5C9B, size: 0x8, addend: 0x0, symName: __ZNSt3__119__libcpp_deallocateB8ne180100EPvmm, symObjAddr: 0x115C, symBinAddr: 0x100003A00, symSize: 0x30 }
  - { offsetInCU: 0x5CE3, offset: 0x5CE3, size: 0x8, addend: 0x0, symName: __ZNSt3__127__do_deallocate_handle_sizeB8ne180100IJEEEvPvmDpT_, symObjAddr: 0x118C, symBinAddr: 0x100003A30, symSize: 0x28 }
  - { offsetInCU: 0x5D21, offset: 0x5D21, size: 0x8, addend: 0x0, symName: __ZNSt3__124__libcpp_operator_deleteB8ne180100IJPvEEEvDpT_, symObjAddr: 0x11B4, symBinAddr: 0x100003A58, symSize: 0x24 }
  - { offsetInCU: 0x5D56, offset: 0x5D56, size: 0x8, addend: 0x0, symName: __ZNSt3__19use_facetB8ne180100INS_5ctypeIcEEEERKT_RKNS_6localeE, symObjAddr: 0x1300, symBinAddr: 0x100003BA4, symSize: 0x2C }
  - { offsetInCU: 0x640A, offset: 0x640A, size: 0x8, addend: 0x0, symName: __ZSt28__throw_bad_array_new_lengthB8ne180100v, symObjAddr: 0xC50, symBinAddr: 0x1000034F4, symSize: 0x34 }
  - { offsetInCU: 0x6570, offset: 0x6570, size: 0x8, addend: 0x0, symName: _pre, symObjAddr: 0x1CF58, symBinAddr: 0x100008018, symSize: 0x0 }
  - { offsetInCU: 0x8AA8, offset: 0x8AA8, size: 0x8, addend: 0x0, symName: __ZNSt3__16vectorIxNS_9allocatorIxEEEC1EmRKx, symObjAddr: 0x0, symBinAddr: 0x1000028A4, symSize: 0x3C }
  - { offsetInCU: 0x8AF0, offset: 0x8AF0, size: 0x8, addend: 0x0, symName: __ZNSt3__16vectorIxNS_9allocatorIxEEED1B8ne180100Ev, symObjAddr: 0x3C, symBinAddr: 0x1000028E0, symSize: 0x2C }
  - { offsetInCU: 0x8B19, offset: 0x8B19, size: 0x8, addend: 0x0, symName: __Z12initializeDPv, symObjAddr: 0x68, symBinAddr: 0x10000290C, symSize: 0x4C }
  - { offsetInCU: 0x8B32, offset: 0x8B32, size: 0x8, addend: 0x0, symName: __ZNSt3__16vectorIxNS_9allocatorIxEEEixB8ne180100Em, symObjAddr: 0xB4, symBinAddr: 0x100002958, symSize: 0x24 }
  - { offsetInCU: 0x8B66, offset: 0x8B66, size: 0x8, addend: 0x0, symName: __Z1fiRNSt3__16vectorIxNS_9allocatorIxEEEE, symObjAddr: 0xD8, symBinAddr: 0x10000297C, symSize: 0xDC }
  - { offsetInCU: 0x8BA0, offset: 0x8BA0, size: 0x8, addend: 0x0, symName: __ZN10PrecomputeC1Ev, symObjAddr: 0x1B4, symBinAddr: 0x100002A58, symSize: 0x2C }
  - { offsetInCU: 0x8BC9, offset: 0x8BC9, size: 0x8, addend: 0x0, symName: _main, symObjAddr: 0x1E0, symBinAddr: 0x100002A84, symSize: 0x8C }
  - { offsetInCU: 0x8C4A, offset: 0x8C4A, size: 0x8, addend: 0x0, symName: __ZN8Solution9factorialEi, symObjAddr: 0x26C, symBinAddr: 0x100002B10, symSize: 0x74 }
  - { offsetInCU: 0x8D2A, offset: 0x8D2A, size: 0x8, addend: 0x0, symName: __ZNSt3__113basic_ostreamIcNS_11char_traitsIcEEElsB8ne180100EPFRS3_S4_E, symObjAddr: 0x2E0, symBinAddr: 0x100002B84, symSize: 0x2C }
  - { offsetInCU: 0x8D5C, offset: 0x8D5C, size: 0x8, addend: 0x0, symName: __ZN10PrecomputeC2Ev, symObjAddr: 0x364, symBinAddr: 0x100002C08, symSize: 0x3C }
  - { offsetInCU: 0x8D84, offset: 0x8D84, size: 0x8, addend: 0x0, symName: __ZNSt3__16vectorIxNS_9allocatorIxEEEC2EmRKx, symObjAddr: 0x3A0, symBinAddr: 0x100002C44, symSize: 0xE4 }
  - { offsetInCU: 0x8DED, offset: 0x8DED, size: 0x8, addend: 0x0, symName: __ZNSt3__117__compressed_pairIPxNS_9allocatorIxEEEC1B8ne180100IDnNS_18__default_init_tagEEEOT_OT0_, symObjAddr: 0x484, symBinAddr: 0x100002D28, symSize: 0x3C }
  - { offsetInCU: 0x8E43, offset: 0x8E43, size: 0x8, addend: 0x0, symName: __ZNSt3__16vectorIxNS_9allocatorIxEEE16__destroy_vectorC1B8ne180100ERS3_, symObjAddr: 0x500, symBinAddr: 0x100002DA4, symSize: 0x34 }
  - { offsetInCU: 0x8E7B, offset: 0x8E7B, size: 0x8, addend: 0x0, symName: __ZNSt3__16vectorIxNS_9allocatorIxEEE11__vallocateB8ne180100Em, symObjAddr: 0x534, symBinAddr: 0x100002DD8, symSize: 0xAC }
  - { offsetInCU: 0x8EBF, offset: 0x8EBF, size: 0x8, addend: 0x0, symName: __ZNSt3__16vectorIxNS_9allocatorIxEEE18__construct_at_endEmRKx, symObjAddr: 0x5E0, symBinAddr: 0x100002E84, symSize: 0xD8 }
  - { offsetInCU: 0x8F43, offset: 0x8F43, size: 0x8, addend: 0x0, symName: __ZNSt3__128__exception_guard_exceptionsINS_6vectorIxNS_9allocatorIxEEE16__destroy_vectorEE10__completeB8ne180100Ev, symObjAddr: 0x6B8, symBinAddr: 0x100002F5C, symSize: 0x1C }
  - { offsetInCU: 0x8F67, offset: 0x8F67, size: 0x8, addend: 0x0, symName: __ZNSt3__128__exception_guard_exceptionsINS_6vectorIxNS_9allocatorIxEEE16__destroy_vectorEED1B8ne180100Ev, symObjAddr: 0x6D4, symBinAddr: 0x100002F78, symSize: 0x2C }
  - { offsetInCU: 0x8F8F, offset: 0x8F8F, size: 0x8, addend: 0x0, symName: __ZNSt3__117__compressed_pairIPxNS_9allocatorIxEEEC2B8ne180100IDnNS_18__default_init_tagEEEOT_OT0_, symObjAddr: 0x70C, symBinAddr: 0x100002FB0, symSize: 0x40 }
  - { offsetInCU: 0x8FE6, offset: 0x8FE6, size: 0x8, addend: 0x0, symName: __ZNSt3__122__compressed_pair_elemIPxLi0ELb0EEC2B8ne180100IDnvEEOT_, symObjAddr: 0x74C, symBinAddr: 0x100002FF0, symSize: 0x1C }
  - { offsetInCU: 0x9026, offset: 0x9026, size: 0x8, addend: 0x0, symName: __ZNSt3__122__compressed_pair_elemINS_9allocatorIxEELi1ELb1EEC2B8ne180100ENS_18__default_init_tagE, symObjAddr: 0x768, symBinAddr: 0x10000300C, symSize: 0x2C }
  - { offsetInCU: 0x9059, offset: 0x9059, size: 0x8, addend: 0x0, symName: __ZNSt3__19allocatorIxEC2B8ne180100Ev, symObjAddr: 0x794, symBinAddr: 0x100003038, symSize: 0x2C }
  - { offsetInCU: 0x9082, offset: 0x9082, size: 0x8, addend: 0x0, symName: __ZNSt3__116__non_trivial_ifILb1ENS_9allocatorIxEEEC2B8ne180100Ev, symObjAddr: 0x7C0, symBinAddr: 0x100003064, symSize: 0x14 }
  - { offsetInCU: 0x90AA, offset: 0x90AA, size: 0x8, addend: 0x0, symName: __ZNSt3__128__exception_guard_exceptionsINS_6vectorIxNS_9allocatorIxEEE16__destroy_vectorEEC1B8ne180100ES5_, symObjAddr: 0x7D4, symBinAddr: 0x100003078, symSize: 0x34 }
  - { offsetInCU: 0x90E1, offset: 0x90E1, size: 0x8, addend: 0x0, symName: __ZNSt3__128__exception_guard_exceptionsINS_6vectorIxNS_9allocatorIxEEE16__destroy_vectorEEC2B8ne180100ES5_, symObjAddr: 0x808, symBinAddr: 0x1000030AC, symSize: 0x24 }
  - { offsetInCU: 0x9118, offset: 0x9118, size: 0x8, addend: 0x0, symName: __ZNSt3__16vectorIxNS_9allocatorIxEEE16__destroy_vectorC2B8ne180100ERS3_, symObjAddr: 0x82C, symBinAddr: 0x1000030D0, symSize: 0x20 }
  - { offsetInCU: 0x9150, offset: 0x9150, size: 0x8, addend: 0x0, symName: __ZNKSt3__16vectorIxNS_9allocatorIxEEE8max_sizeEv, symObjAddr: 0x84C, symBinAddr: 0x1000030F0, symSize: 0x74 }
  - { offsetInCU: 0x9177, offset: 0x9177, size: 0x8, addend: 0x0, symName: __ZNKSt3__16vectorIxNS_9allocatorIxEEE20__throw_length_errorB8ne180100Ev, symObjAddr: 0x8C0, symBinAddr: 0x100003164, symSize: 0x1C }
  - { offsetInCU: 0x919C, offset: 0x919C, size: 0x8, addend: 0x0, symName: __ZNSt3__16vectorIxNS_9allocatorIxEEE7__allocB8ne180100Ev, symObjAddr: 0x91C, symBinAddr: 0x1000031C0, symSize: 0x28 }
  - { offsetInCU: 0x91C1, offset: 0x91C1, size: 0x8, addend: 0x0, symName: __ZNSt3__16vectorIxNS_9allocatorIxEEE9__end_capB8ne180100Ev, symObjAddr: 0x944, symBinAddr: 0x1000031E8, symSize: 0x28 }
  - { offsetInCU: 0x91E6, offset: 0x91E6, size: 0x8, addend: 0x0, symName: __ZNKSt3__16vectorIxNS_9allocatorIxEEE14__annotate_newB8ne180100Em, symObjAddr: 0x96C, symBinAddr: 0x100003210, symSize: 0x14 }
  - { offsetInCU: 0x9224, offset: 0x9224, size: 0x8, addend: 0x0, symName: __ZNSt3__116allocator_traitsINS_9allocatorIxEEE8max_sizeB8ne180100IS2_vEEmRKS2_, symObjAddr: 0x9AC, symBinAddr: 0x100003250, symSize: 0x24 }
  - { offsetInCU: 0x9252, offset: 0x9252, size: 0x8, addend: 0x0, symName: __ZNKSt3__16vectorIxNS_9allocatorIxEEE7__allocB8ne180100Ev, symObjAddr: 0x9D0, symBinAddr: 0x100003274, symSize: 0x28 }
  - { offsetInCU: 0x9277, offset: 0x9277, size: 0x8, addend: 0x0, symName: __ZNSt3__114numeric_limitsIlE3maxB8ne180100Ev, symObjAddr: 0x9F8, symBinAddr: 0x10000329C, symSize: 0x14 }
  - { offsetInCU: 0x929F, offset: 0x929F, size: 0x8, addend: 0x0, symName: __ZNKSt3__16__lessIvvEclB8ne180100ImmEEbRKT_RKT0_, symObjAddr: 0xA60, symBinAddr: 0x100003304, symSize: 0x34 }
  - { offsetInCU: 0x92F2, offset: 0x92F2, size: 0x8, addend: 0x0, symName: __ZNKSt3__19allocatorIxE8max_sizeB8ne180100Ev, symObjAddr: 0xA94, symBinAddr: 0x100003338, symSize: 0x14 }
  - { offsetInCU: 0x9317, offset: 0x9317, size: 0x8, addend: 0x0, symName: __ZNKSt3__117__compressed_pairIPxNS_9allocatorIxEEE6secondB8ne180100Ev, symObjAddr: 0xAA8, symBinAddr: 0x10000334C, symSize: 0x24 }
  - { offsetInCU: 0x933C, offset: 0x933C, size: 0x8, addend: 0x0, symName: __ZNKSt3__122__compressed_pair_elemINS_9allocatorIxEELi1ELb1EE5__getB8ne180100Ev, symObjAddr: 0xACC, symBinAddr: 0x100003370, symSize: 0x14 }
  - { offsetInCU: 0x9361, offset: 0x9361, size: 0x8, addend: 0x0, symName: __ZNSt3__123__libcpp_numeric_limitsIlLb1EE3maxB8ne180100Ev, symObjAddr: 0xAE0, symBinAddr: 0x100003384, symSize: 0x8 }
  - { offsetInCU: 0x9374, offset: 0x9374, size: 0x8, addend: 0x0, symName: __ZNSt12length_errorC1B8ne180100EPKc, symObjAddr: 0xB4C, symBinAddr: 0x1000033F0, symSize: 0x34 }
  - { offsetInCU: 0x93AA, offset: 0x93AA, size: 0x8, addend: 0x0, symName: __ZNSt12length_errorC2B8ne180100EPKc, symObjAddr: 0xB80, symBinAddr: 0x100003424, symSize: 0x4C }
  - { offsetInCU: 0x93E1, offset: 0x93E1, size: 0x8, addend: 0x0, symName: __ZNSt3__19allocatorIxE8allocateB8ne180100Em, symObjAddr: 0xBCC, symBinAddr: 0x100003470, symSize: 0x84 }
  - { offsetInCU: 0x9414, offset: 0x9414, size: 0x8, addend: 0x0, symName: __ZNSt3__117__compressed_pairIPxNS_9allocatorIxEEE6secondB8ne180100Ev, symObjAddr: 0xCDC, symBinAddr: 0x100003580, symSize: 0x24 }
  - { offsetInCU: 0x9439, offset: 0x9439, size: 0x8, addend: 0x0, symName: __ZNSt3__122__compressed_pair_elemINS_9allocatorIxEELi1ELb1EE5__getB8ne180100Ev, symObjAddr: 0xD00, symBinAddr: 0x1000035A4, symSize: 0x14 }
  - { offsetInCU: 0x945E, offset: 0x945E, size: 0x8, addend: 0x0, symName: __ZNSt3__117__compressed_pairIPxNS_9allocatorIxEEE5firstB8ne180100Ev, symObjAddr: 0xD14, symBinAddr: 0x1000035B8, symSize: 0x24 }
  - { offsetInCU: 0x9483, offset: 0x9483, size: 0x8, addend: 0x0, symName: __ZNSt3__122__compressed_pair_elemIPxLi0ELb0EE5__getB8ne180100Ev, symObjAddr: 0xD38, symBinAddr: 0x1000035DC, symSize: 0x14 }
  - { offsetInCU: 0x94C0, offset: 0x94C0, size: 0x8, addend: 0x0, symName: __ZNSt3__16vectorIxNS_9allocatorIxEEE21_ConstructTransactionC1B8ne180100ERS3_m, symObjAddr: 0xD4C, symBinAddr: 0x1000035F0, symSize: 0x3C }
  - { offsetInCU: 0x9507, offset: 0x9507, size: 0x8, addend: 0x0, symName: __ZNSt3__116allocator_traitsINS_9allocatorIxEEE9constructB8ne180100IxJRKxEvEEvRS2_PT_DpOT0_, symObjAddr: 0xD88, symBinAddr: 0x10000362C, symSize: 0x34 }
  - { offsetInCU: 0x955D, offset: 0x955D, size: 0x8, addend: 0x0, symName: __ZNSt3__16vectorIxNS_9allocatorIxEEE21_ConstructTransactionD1B8ne180100Ev, symObjAddr: 0xDD0, symBinAddr: 0x100003674, symSize: 0x2C }
  - { offsetInCU: 0x9586, offset: 0x9586, size: 0x8, addend: 0x0, symName: __ZNSt3__16vectorIxNS_9allocatorIxEEE21_ConstructTransactionC2B8ne180100ERS3_m, symObjAddr: 0xDFC, symBinAddr: 0x1000036A0, symSize: 0x44 }
  - { offsetInCU: 0x95CD, offset: 0x95CD, size: 0x8, addend: 0x0, symName: __ZNSt3__19allocatorIxE9constructB8ne180100IxJRKxEEEvPT_DpOT0_, symObjAddr: 0xE40, symBinAddr: 0x1000036E4, symSize: 0x28 }
  - { offsetInCU: 0x9622, offset: 0x9622, size: 0x8, addend: 0x0, symName: __ZNSt3__16vectorIxNS_9allocatorIxEEE21_ConstructTransactionD2B8ne180100Ev, symObjAddr: 0xE68, symBinAddr: 0x10000370C, symSize: 0x20 }
  - { offsetInCU: 0x964A, offset: 0x964A, size: 0x8, addend: 0x0, symName: __ZNSt3__128__exception_guard_exceptionsINS_6vectorIxNS_9allocatorIxEEE16__destroy_vectorEED2B8ne180100Ev, symObjAddr: 0xE88, symBinAddr: 0x10000372C, symSize: 0x48 }
  - { offsetInCU: 0x9673, offset: 0x9673, size: 0x8, addend: 0x0, symName: __ZNSt3__16vectorIxNS_9allocatorIxEEE16__destroy_vectorclB8ne180100Ev, symObjAddr: 0xED0, symBinAddr: 0x100003774, symSize: 0x90 }
  - { offsetInCU: 0x9698, offset: 0x9698, size: 0x8, addend: 0x0, symName: __ZNSt3__16vectorIxNS_9allocatorIxEEE7__clearB8ne180100Ev, symObjAddr: 0xF60, symBinAddr: 0x100003804, symSize: 0x28 }
  - { offsetInCU: 0x96BD, offset: 0x96BD, size: 0x8, addend: 0x0, symName: __ZNKSt3__16vectorIxNS_9allocatorIxEEE17__annotate_deleteB8ne180100Ev, symObjAddr: 0xF88, symBinAddr: 0x10000382C, symSize: 0x10 }
  - { offsetInCU: 0x96E2, offset: 0x96E2, size: 0x8, addend: 0x0, symName: __ZNSt3__116allocator_traitsINS_9allocatorIxEEE10deallocateB8ne180100ERS2_Pxm, symObjAddr: 0xF98, symBinAddr: 0x10000383C, symSize: 0x34 }
  - { offsetInCU: 0x9724, offset: 0x9724, size: 0x8, addend: 0x0, symName: __ZNKSt3__16vectorIxNS_9allocatorIxEEE8capacityB8ne180100Ev, symObjAddr: 0xFCC, symBinAddr: 0x100003870, symSize: 0x40 }
  - { offsetInCU: 0x9749, offset: 0x9749, size: 0x8, addend: 0x0, symName: __ZNSt3__16vectorIxNS_9allocatorIxEEE22__base_destruct_at_endB8ne180100EPx, symObjAddr: 0x100C, symBinAddr: 0x1000038B0, symSize: 0xA0 }
  - { offsetInCU: 0x978D, offset: 0x978D, size: 0x8, addend: 0x0, symName: __ZNSt3__116allocator_traitsINS_9allocatorIxEEE7destroyB8ne180100IxvEEvRS2_PT_, symObjAddr: 0x10AC, symBinAddr: 0x100003950, symSize: 0x2C }
  - { offsetInCU: 0x97CA, offset: 0x97CA, size: 0x8, addend: 0x0, symName: __ZNSt3__19allocatorIxE7destroyB8ne180100EPx, symObjAddr: 0x10D8, symBinAddr: 0x10000397C, symSize: 0x14 }
  - { offsetInCU: 0x97FD, offset: 0x97FD, size: 0x8, addend: 0x0, symName: __ZNSt3__19allocatorIxE10deallocateB8ne180100EPxm, symObjAddr: 0x10EC, symBinAddr: 0x100003990, symSize: 0x70 }
  - { offsetInCU: 0x983E, offset: 0x983E, size: 0x8, addend: 0x0, symName: __ZNKSt3__16vectorIxNS_9allocatorIxEEE9__end_capB8ne180100Ev, symObjAddr: 0x11D8, symBinAddr: 0x100003A7C, symSize: 0x28 }
  - { offsetInCU: 0x9863, offset: 0x9863, size: 0x8, addend: 0x0, symName: __ZNKSt3__117__compressed_pairIPxNS_9allocatorIxEEE5firstB8ne180100Ev, symObjAddr: 0x1200, symBinAddr: 0x100003AA4, symSize: 0x24 }
  - { offsetInCU: 0x9888, offset: 0x9888, size: 0x8, addend: 0x0, symName: __ZNKSt3__122__compressed_pair_elemIPxLi0ELb0EE5__getB8ne180100Ev, symObjAddr: 0x1224, symBinAddr: 0x100003AC8, symSize: 0x14 }
  - { offsetInCU: 0x98AC, offset: 0x98AC, size: 0x8, addend: 0x0, symName: __ZNSt3__16vectorIxNS_9allocatorIxEEED2B8ne180100Ev, symObjAddr: 0x1238, symBinAddr: 0x100003ADC, symSize: 0x3C }
  - { offsetInCU: 0x98D5, offset: 0x98D5, size: 0x8, addend: 0x0, symName: __ZNKSt3__19basic_iosIcNS_11char_traitsIcEEE5widenB8ne180100Ec, symObjAddr: 0x1274, symBinAddr: 0x100003B18, symSize: 0x8C }
  - { offsetInCU: 0x9942, offset: 0x9942, size: 0x8, addend: 0x0, symName: __ZNKSt3__15ctypeIcE5widenB8ne180100Ec, symObjAddr: 0x132C, symBinAddr: 0x100003BD0, symSize: 0x38 }
...
