---
triple:          'arm64-apple-darwin'
binary-path:     '/Volumes/Samsung/coding/Project_2024/CrackYourPlacement/CrackYourPlacement/oops/output/deepshallowcpy'
relocations:
  - { offsetInCU: 0x2E7B, offset: 0x2E7B, size: 0x8, addend: 0x0, symName: __ZNSt3__124__put_character_sequenceB8ne180100IcNS_11char_traitsIcEEEERNS_13basic_ostreamIT_T0_EES7_PKS4_m, symObjAddr: 0x60C, symBinAddr: 0x100002EA4, symSize: 0x1F4 }
  - { offsetInCU: 0x4819, offset: 0x4819, size: 0x8, addend: 0x0, symName: __ZNSt3__1lsB8ne180100IcNS_11char_traitsIcEENS_9allocatorIcEEEERNS_13basic_ostreamIT_T0_EES9_RKNS_12basic_stringIS6_S7_T1_EE, symObjAddr: 0x53C, symBinAddr: 0x100002DD4, symSize: 0x4C }
  - { offsetInCU: 0x4871, offset: 0x4871, size: 0x8, addend: 0x0, symName: __ZNSt3__14endlB8ne180100IcNS_11char_traitsIcEEEERNS_13basic_ostreamIT_T0_EES7_, symObjAddr: 0x5B4, symBinAddr: 0x100002E4C, symSize: 0x58 }
  - { offsetInCU: 0x48B1, offset: 0x48B1, size: 0x8, addend: 0x0, symName: __ZNSt3__116__pad_and_outputB8ne180100IcNS_11char_traitsIcEEEENS_19ostreambuf_iteratorIT_T0_EES6_PKS4_S8_S8_RNS_8ios_baseES4_, symObjAddr: 0x898, symBinAddr: 0x100003130, symSize: 0x248 }
  - { offsetInCU: 0x4980, offset: 0x4980, size: 0x8, addend: 0x0, symName: __ZNSt3__19use_facetB8ne180100INS_5ctypeIcEEEERKT_RKNS_6localeE, symObjAddr: 0xED4, symBinAddr: 0x10000376C, symSize: 0x2C }
  - { offsetInCU: 0x4E4D, offset: 0x4E4D, size: 0x8, addend: 0x0, symName: __ZNSt3__112__to_addressB8ne180100IKcEEPT_S3_, symObjAddr: 0xF6C, symBinAddr: 0x100003804, symSize: 0x14 }
  - { offsetInCU: 0x4E82, offset: 0x4E82, size: 0x8, addend: 0x0, symName: __ZNSt3__130__libcpp_is_constant_evaluatedB8ne180100Ev, symObjAddr: 0x10B8, symBinAddr: 0x100003950, symSize: 0xC }
  - { offsetInCU: 0x4ED2, offset: 0x4ED2, size: 0x8, addend: 0x0, symName: __ZNSt3__1lsB8ne180100INS_11char_traitsIcEEEERNS_13basic_ostreamIcT_EES6_PKc, symObjAddr: 0x1224, symBinAddr: 0x100003ABC, symSize: 0x48 }
  - { offsetInCU: 0x4F18, offset: 0x4F18, size: 0x8, addend: 0x0, symName: __ZNSt3__118__constexpr_strlenB8ne180100EPKc, symObjAddr: 0x12B4, symBinAddr: 0x100003B4C, symSize: 0x24 }
  - { offsetInCU: 0x74D6, offset: 0x74D6, size: 0x8, addend: 0x0, symName: _main, symObjAddr: 0x0, symBinAddr: 0x100002898, symSize: 0x110 }
  - { offsetInCU: 0x7511, offset: 0x7511, size: 0x8, addend: 0x0, symName: __ZNSt3__112basic_stringIcNS_11char_traitsIcEENS_9allocatorIcEEEC1B8ne180100ILi0EEEPKc, symObjAddr: 0x110, symBinAddr: 0x1000029A8, symSize: 0x34 }
  - { offsetInCU: 0x75DE, offset: 0x75DE, size: 0x8, addend: 0x0, symName: __ZN7StudentC1ENSt3__112basic_stringIcNS0_11char_traitsIcEENS0_9allocatorIcEEEEdi, symObjAddr: 0x144, symBinAddr: 0x1000029DC, symSize: 0x44 }
  - { offsetInCU: 0x7631, offset: 0x7631, size: 0x8, addend: 0x0, symName: __ZN7StudentC1ERS_, symObjAddr: 0x194, symBinAddr: 0x100002A2C, symSize: 0x34 }
  - { offsetInCU: 0x7667, offset: 0x7667, size: 0x8, addend: 0x0, symName: __ZN7Student7getinfoEv, symObjAddr: 0x1C8, symBinAddr: 0x100002A60, symSize: 0x7C }
  - { offsetInCU: 0x768B, offset: 0x768B, size: 0x8, addend: 0x0, symName: __ZN7StudentD1Ev, symObjAddr: 0x244, symBinAddr: 0x100002ADC, symSize: 0x2C }
  - { offsetInCU: 0x76B3, offset: 0x76B3, size: 0x8, addend: 0x0, symName: __ZN7StudentC2ENSt3__112basic_stringIcNS0_11char_traitsIcEENS0_9allocatorIcEEEEdi, symObjAddr: 0x270, symBinAddr: 0x100002B08, symSize: 0xA4 }
  - { offsetInCU: 0x7706, offset: 0x7706, size: 0x8, addend: 0x0, symName: __ZNSt3__112basic_stringIcNS_11char_traitsIcEENS_9allocatorIcEEEC1B8ne180100Ev, symObjAddr: 0x314, symBinAddr: 0x100002BAC, symSize: 0x2C }
  - { offsetInCU: 0x772E, offset: 0x772E, size: 0x8, addend: 0x0, symName: __ZNSt3__112basic_stringIcNS_11char_traitsIcEENS_9allocatorIcEEEC2B8ne180100Ev, symObjAddr: 0x340, symBinAddr: 0x100002BD8, symSize: 0x40 }
  - { offsetInCU: 0x7760, offset: 0x7760, size: 0x8, addend: 0x0, symName: __ZNSt3__117__compressed_pairINS_12basic_stringIcNS_11char_traitsIcEENS_9allocatorIcEEE5__repES5_EC1B8ne180100INS_16__value_init_tagENS_18__default_init_tagEEEOT_OT0_, symObjAddr: 0x380, symBinAddr: 0x100002C18, symSize: 0x3C }
  - { offsetInCU: 0x77B6, offset: 0x77B6, size: 0x8, addend: 0x0, symName: __ZNKSt3__112basic_stringIcNS_11char_traitsIcEENS_9allocatorIcEEE14__annotate_newB8ne180100Em, symObjAddr: 0x3BC, symBinAddr: 0x100002C54, symSize: 0x14 }
  - { offsetInCU: 0x77E9, offset: 0x77E9, size: 0x8, addend: 0x0, symName: __ZNSt3__117__compressed_pairINS_12basic_stringIcNS_11char_traitsIcEENS_9allocatorIcEEE5__repES5_EC2B8ne180100INS_16__value_init_tagENS_18__default_init_tagEEEOT_OT0_, symObjAddr: 0x3D0, symBinAddr: 0x100002C68, symSize: 0x3C }
  - { offsetInCU: 0x783F, offset: 0x783F, size: 0x8, addend: 0x0, symName: __ZNSt3__122__compressed_pair_elemINS_12basic_stringIcNS_11char_traitsIcEENS_9allocatorIcEEE5__repELi0ELb0EEC2B8ne180100ENS_16__value_init_tagE, symObjAddr: 0x40C, symBinAddr: 0x100002CA4, symSize: 0x20 }
  - { offsetInCU: 0x7871, offset: 0x7871, size: 0x8, addend: 0x0, symName: __ZNSt3__122__compressed_pair_elemINS_9allocatorIcEELi1ELb1EEC2B8ne180100ENS_18__default_init_tagE, symObjAddr: 0x42C, symBinAddr: 0x100002CC4, symSize: 0x2C }
  - { offsetInCU: 0x78A3, offset: 0x78A3, size: 0x8, addend: 0x0, symName: __ZNSt3__19allocatorIcEC2B8ne180100Ev, symObjAddr: 0x458, symBinAddr: 0x100002CF0, symSize: 0x2C }
  - { offsetInCU: 0x78CB, offset: 0x78CB, size: 0x8, addend: 0x0, symName: __ZNSt3__116__non_trivial_ifILb1ENS_9allocatorIcEEEC2B8ne180100Ev, symObjAddr: 0x484, symBinAddr: 0x100002D1C, symSize: 0x14 }
  - { offsetInCU: 0x78F3, offset: 0x78F3, size: 0x8, addend: 0x0, symName: __ZN7StudentC2ERS_, symObjAddr: 0x498, symBinAddr: 0x100002D30, symSize: 0xA4 }
  - { offsetInCU: 0x7929, offset: 0x7929, size: 0x8, addend: 0x0, symName: __ZNSt3__113basic_ostreamIcNS_11char_traitsIcEEElsB8ne180100EPFRS3_S4_E, symObjAddr: 0x588, symBinAddr: 0x100002E20, symSize: 0x2C }
  - { offsetInCU: 0x795B, offset: 0x795B, size: 0x8, addend: 0x0, symName: __ZNKSt3__112basic_stringIcNS_11char_traitsIcEENS_9allocatorIcEEE4dataB8ne180100Ev, symObjAddr: 0x800, symBinAddr: 0x100003098, symSize: 0x28 }
  - { offsetInCU: 0x797F, offset: 0x797F, size: 0x8, addend: 0x0, symName: __ZNKSt3__112basic_stringIcNS_11char_traitsIcEENS_9allocatorIcEEE4sizeB8ne180100Ev, symObjAddr: 0x828, symBinAddr: 0x1000030C0, symSize: 0x54 }
  - { offsetInCU: 0x79C1, offset: 0x79C1, size: 0x8, addend: 0x0, symName: __ZNKSt3__113basic_ostreamIcNS_11char_traitsIcEEE6sentrycvbB8ne180100Ev, symObjAddr: 0x87C, symBinAddr: 0x100003114, symSize: 0x1C }
  - { offsetInCU: 0x79E5, offset: 0x79E5, size: 0x8, addend: 0x0, symName: __ZNSt3__119ostreambuf_iteratorIcNS_11char_traitsIcEEEC1B8ne180100ERNS_13basic_ostreamIcS2_EE, symObjAddr: 0xAE0, symBinAddr: 0x100003378, symSize: 0x34 }
  - { offsetInCU: 0x7A1B, offset: 0x7A1B, size: 0x8, addend: 0x0, symName: __ZNKSt3__18ios_base5flagsB8ne180100Ev, symObjAddr: 0xB14, symBinAddr: 0x1000033AC, symSize: 0x18 }
  - { offsetInCU: 0x7A41, offset: 0x7A41, size: 0x8, addend: 0x0, symName: __ZNKSt3__19basic_iosIcNS_11char_traitsIcEEE4fillB8ne180100Ev, symObjAddr: 0xB2C, symBinAddr: 0x1000033C4, symSize: 0x64 }
  - { offsetInCU: 0x7A67, offset: 0x7A67, size: 0x8, addend: 0x0, symName: __ZNKSt3__119ostreambuf_iteratorIcNS_11char_traitsIcEEE6failedB8ne180100Ev, symObjAddr: 0xB90, symBinAddr: 0x100003428, symSize: 0x24 }
  - { offsetInCU: 0x7A8B, offset: 0x7A8B, size: 0x8, addend: 0x0, symName: __ZNSt3__19basic_iosIcNS_11char_traitsIcEEE8setstateB8ne180100Ej, symObjAddr: 0xBB4, symBinAddr: 0x10000344C, symSize: 0x2C }
  - { offsetInCU: 0x7ABE, offset: 0x7ABE, size: 0x8, addend: 0x0, symName: __ZNKSt3__18ios_base5widthB8ne180100Ev, symObjAddr: 0xBE0, symBinAddr: 0x100003478, symSize: 0x18 }
  - { offsetInCU: 0x7AE4, offset: 0x7AE4, size: 0x8, addend: 0x0, symName: __ZNSt3__115basic_streambufIcNS_11char_traitsIcEEE5sputnB8ne180100EPKcl, symObjAddr: 0xBF8, symBinAddr: 0x100003490, symSize: 0x3C }
  - { offsetInCU: 0x7B24, offset: 0x7B24, size: 0x8, addend: 0x0, symName: __ZNSt3__112basic_stringIcNS_11char_traitsIcEENS_9allocatorIcEEEC1B8ne180100Emc, symObjAddr: 0xC34, symBinAddr: 0x1000034CC, symSize: 0x3C }
  - { offsetInCU: 0x7B6A, offset: 0x7B6A, size: 0x8, addend: 0x0, symName: __ZNSt3__18ios_base5widthB8ne180100El, symObjAddr: 0xC70, symBinAddr: 0x100003508, symSize: 0x2C }
  - { offsetInCU: 0x7BAE, offset: 0x7BAE, size: 0x8, addend: 0x0, symName: __ZNSt3__112basic_stringIcNS_11char_traitsIcEENS_9allocatorIcEEEC2B8ne180100Emc, symObjAddr: 0xC9C, symBinAddr: 0x100003534, symSize: 0x4C }
  - { offsetInCU: 0x7BF4, offset: 0x7BF4, size: 0x8, addend: 0x0, symName: __ZNSt3__117__compressed_pairINS_12basic_stringIcNS_11char_traitsIcEENS_9allocatorIcEEE5__repES5_EC1B8ne180100INS_18__default_init_tagESA_EEOT_OT0_, symObjAddr: 0xCE8, symBinAddr: 0x100003580, symSize: 0x3C }
  - { offsetInCU: 0x7C4A, offset: 0x7C4A, size: 0x8, addend: 0x0, symName: __ZNSt3__117__compressed_pairINS_12basic_stringIcNS_11char_traitsIcEENS_9allocatorIcEEE5__repES5_EC2B8ne180100INS_18__default_init_tagESA_EEOT_OT0_, symObjAddr: 0xD24, symBinAddr: 0x1000035BC, symSize: 0x3C }
  - { offsetInCU: 0x7CA0, offset: 0x7CA0, size: 0x8, addend: 0x0, symName: __ZNSt3__122__compressed_pair_elemINS_12basic_stringIcNS_11char_traitsIcEENS_9allocatorIcEEE5__repELi0ELb0EEC2B8ne180100ENS_18__default_init_tagE, symObjAddr: 0xD60, symBinAddr: 0x1000035F8, symSize: 0x14 }
  - { offsetInCU: 0x7CD2, offset: 0x7CD2, size: 0x8, addend: 0x0, symName: __ZNSt3__119ostreambuf_iteratorIcNS_11char_traitsIcEEEC2B8ne180100ERNS_13basic_ostreamIcS2_EE, symObjAddr: 0xD74, symBinAddr: 0x10000360C, symSize: 0x68 }
  - { offsetInCU: 0x7D08, offset: 0x7D08, size: 0x8, addend: 0x0, symName: __ZNKSt3__19basic_iosIcNS_11char_traitsIcEEE5rdbufB8ne180100Ev, symObjAddr: 0xDDC, symBinAddr: 0x100003674, symSize: 0x24 }
  - { offsetInCU: 0x7D2E, offset: 0x7D2E, size: 0x8, addend: 0x0, symName: __ZNKSt3__18ios_base5rdbufB8ne180100Ev, symObjAddr: 0xE00, symBinAddr: 0x100003698, symSize: 0x18 }
  - { offsetInCU: 0x7D52, offset: 0x7D52, size: 0x8, addend: 0x0, symName: __ZNSt3__111char_traitsIcE11eq_int_typeB8ne180100Eii, symObjAddr: 0xE18, symBinAddr: 0x1000036B0, symSize: 0x28 }
  - { offsetInCU: 0x7D84, offset: 0x7D84, size: 0x8, addend: 0x0, symName: __ZNSt3__111char_traitsIcE3eofB8ne180100Ev, symObjAddr: 0xE40, symBinAddr: 0x1000036D8, symSize: 0x8 }
  - { offsetInCU: 0x7D97, offset: 0x7D97, size: 0x8, addend: 0x0, symName: __ZNKSt3__19basic_iosIcNS_11char_traitsIcEEE5widenB8ne180100Ec, symObjAddr: 0xE48, symBinAddr: 0x1000036E0, symSize: 0x8C }
  - { offsetInCU: 0x7E03, offset: 0x7E03, size: 0x8, addend: 0x0, symName: __ZNKSt3__15ctypeIcE5widenB8ne180100Ec, symObjAddr: 0xF00, symBinAddr: 0x100003798, symSize: 0x38 }
  - { offsetInCU: 0x7E36, offset: 0x7E36, size: 0x8, addend: 0x0, symName: __ZNSt3__18ios_base8setstateB8ne180100Ej, symObjAddr: 0xF38, symBinAddr: 0x1000037D0, symSize: 0x34 }
  - { offsetInCU: 0x7E6B, offset: 0x7E6B, size: 0x8, addend: 0x0, symName: __ZNKSt3__112basic_stringIcNS_11char_traitsIcEENS_9allocatorIcEEE13__get_pointerB8ne180100Ev, symObjAddr: 0xF80, symBinAddr: 0x100003818, symSize: 0x54 }
  - { offsetInCU: 0x7E8F, offset: 0x7E8F, size: 0x8, addend: 0x0, symName: __ZNKSt3__112basic_stringIcNS_11char_traitsIcEENS_9allocatorIcEEE9__is_longB8ne180100Ev, symObjAddr: 0xFD4, symBinAddr: 0x10000386C, symSize: 0x94 }
  - { offsetInCU: 0x7EB3, offset: 0x7EB3, size: 0x8, addend: 0x0, symName: __ZNKSt3__112basic_stringIcNS_11char_traitsIcEENS_9allocatorIcEEE18__get_long_pointerB8ne180100Ev, symObjAddr: 0x1068, symBinAddr: 0x100003900, symSize: 0x28 }
  - { offsetInCU: 0x7ED7, offset: 0x7ED7, size: 0x8, addend: 0x0, symName: __ZNKSt3__112basic_stringIcNS_11char_traitsIcEENS_9allocatorIcEEE19__get_short_pointerB8ne180100Ev, symObjAddr: 0x1090, symBinAddr: 0x100003928, symSize: 0x28 }
  - { offsetInCU: 0x7EFB, offset: 0x7EFB, size: 0x8, addend: 0x0, symName: __ZNKSt3__117__compressed_pairINS_12basic_stringIcNS_11char_traitsIcEENS_9allocatorIcEEE5__repES5_E5firstB8ne180100Ev, symObjAddr: 0x10C4, symBinAddr: 0x10000395C, symSize: 0x24 }
  - { offsetInCU: 0x7F1F, offset: 0x7F1F, size: 0x8, addend: 0x0, symName: __ZNKSt3__122__compressed_pair_elemINS_12basic_stringIcNS_11char_traitsIcEENS_9allocatorIcEEE5__repELi0ELb0EE5__getB8ne180100Ev, symObjAddr: 0x10E8, symBinAddr: 0x100003980, symSize: 0x14 }
  - { offsetInCU: 0x7F43, offset: 0x7F43, size: 0x8, addend: 0x0, symName: __ZNSt3__114pointer_traitsIPKcE10pointer_toB8ne180100ERS1_, symObjAddr: 0x10FC, symBinAddr: 0x100003994, symSize: 0x14 }
  - { offsetInCU: 0x7F65, offset: 0x7F65, size: 0x8, addend: 0x0, symName: __ZNKSt3__112basic_stringIcNS_11char_traitsIcEENS_9allocatorIcEEE15__get_long_sizeB8ne180100Ev, symObjAddr: 0x1110, symBinAddr: 0x1000039A8, symSize: 0x28 }
  - { offsetInCU: 0x7F89, offset: 0x7F89, size: 0x8, addend: 0x0, symName: __ZNKSt3__112basic_stringIcNS_11char_traitsIcEENS_9allocatorIcEEE16__get_short_sizeB8ne180100Ev, symObjAddr: 0x1138, symBinAddr: 0x1000039D0, symSize: 0x34 }
  - { offsetInCU: 0x7FAD, offset: 0x7FAD, size: 0x8, addend: 0x0, symName: __ZN7StudentD2Ev, symObjAddr: 0x116C, symBinAddr: 0x100003A04, symSize: 0xB8 }
  - { offsetInCU: 0x7FD5, offset: 0x7FD5, size: 0x8, addend: 0x0, symName: __ZNSt3__111char_traitsIcE6lengthB8ne180100EPKc, symObjAddr: 0x126C, symBinAddr: 0x100003B04, symSize: 0x48 }
  - { offsetInCU: 0x7FF7, offset: 0x7FF7, size: 0x8, addend: 0x0, symName: __ZNSt3__112basic_stringIcNS_11char_traitsIcEENS_9allocatorIcEEEC2B8ne180100ILi0EEEPKc, symObjAddr: 0x12D8, symBinAddr: 0x100003B70, symSize: 0x58 }
...
