---
triple:          'arm64-apple-darwin'
binary-path:     '/Volumes/Samsung/Coding/project/Project_2024/CrackYourPlacement/CrackYourPlacement/BItwise/output/convertInBinary'
relocations:
  - { offsetInCU: 0x4771, offset: 0x4771, size: 0x8, addend: 0x0, symName: __ZNSt3__124__put_character_sequenceB8ne180100IcNS_11char_traitsIcEEEERNS_13basic_ostreamIT_T0_EES7_PKS4_m, symObjAddr: 0x23A0, symBinAddr: 0x100002EF8, symSize: 0x1F4 }
  - { offsetInCU: 0x631B, offset: 0x631B, size: 0x8, addend: 0x0, symName: __ZNSt3__14endlB8ne180100IcNS_11char_traitsIcEEEERNS_13basic_ostreamIT_T0_EES7_, symObjAddr: 0x300, symBinAddr: 0x100000E58, symSize: 0x58 }
  - { offsetInCU: 0x635B, offset: 0x635B, size: 0x8, addend: 0x0, symName: __ZNSt3__1lsB8ne180100INS_11char_traitsIcEEEERNS_13basic_ostreamIcT_EES6_PKc, symObjAddr: 0x3F0, symBinAddr: 0x100000F48, symSize: 0x48 }
  - { offsetInCU: 0x63A1, offset: 0x63A1, size: 0x8, addend: 0x0, symName: __ZNSt3__112__to_addressB8ne180100IiEEPT_S2_, symObjAddr: 0x840, symBinAddr: 0x100001398, symSize: 0x14 }
  - { offsetInCU: 0x63D6, offset: 0x63D6, size: 0x8, addend: 0x0, symName: __ZNSt3__130__libcpp_is_constant_evaluatedB8ne180100Ev, symObjAddr: 0x8D8, symBinAddr: 0x100001430, symSize: 0xC }
  - { offsetInCU: 0x63F3, offset: 0x63F3, size: 0x8, addend: 0x0, symName: __ZNSt3__119__libcpp_deallocateB8ne180100EPvmm, symObjAddr: 0x8E4, symBinAddr: 0x10000143C, symSize: 0x30 }
  - { offsetInCU: 0x643B, offset: 0x643B, size: 0x8, addend: 0x0, symName: __ZNSt3__127__do_deallocate_handle_sizeB8ne180100IJEEEvPvmDpT_, symObjAddr: 0x914, symBinAddr: 0x10000146C, symSize: 0x28 }
  - { offsetInCU: 0x6479, offset: 0x6479, size: 0x8, addend: 0x0, symName: __ZNSt3__124__libcpp_operator_deleteB8ne180100IJPvEEEvDpT_, symObjAddr: 0x93C, symBinAddr: 0x100001494, symSize: 0x24 }
  - { offsetInCU: 0x64AE, offset: 0x64AE, size: 0x8, addend: 0x0, symName: __ZNSt3__13maxB8ne180100ImEERKT_S3_S3_, symObjAddr: 0xFCC, symBinAddr: 0x100001B24, symSize: 0x2C }
  - { offsetInCU: 0x64F1, offset: 0x64F1, size: 0x8, addend: 0x0, symName: __ZNSt3__13minB8ne180100ImEERKT_S3_S3_, symObjAddr: 0xFF8, symBinAddr: 0x100001B50, symSize: 0x2C }
  - { offsetInCU: 0x6735, offset: 0x6735, size: 0x8, addend: 0x0, symName: __ZNSt3__13minB8ne180100ImNS_6__lessIvvEEEERKT_S5_S5_T0_, symObjAddr: 0x1084, symBinAddr: 0x100001BDC, symSize: 0x54 }
  - { offsetInCU: 0x67D4, offset: 0x67D4, size: 0x8, addend: 0x0, symName: __ZNSt3__120__throw_length_errorB8ne180100EPKc, symObjAddr: 0x1160, symBinAddr: 0x100001CB8, symSize: 0x64 }
  - { offsetInCU: 0x67FC, offset: 0x67FC, size: 0x8, addend: 0x0, symName: __ZNSt3__13maxB8ne180100ImNS_6__lessIvvEEEERKT_S5_S5_T0_, symObjAddr: 0x1244, symBinAddr: 0x100001D9C, symSize: 0x54 }
  - { offsetInCU: 0x6856, offset: 0x6856, size: 0x8, addend: 0x0, symName: __ZNSt3__119__allocate_at_leastB8ne180100INS_9allocatorIiEEEENS_19__allocation_resultINS_16allocator_traitsIT_E7pointerEEERS5_m, symObjAddr: 0x13A8, symBinAddr: 0x100001F00, symSize: 0x40 }
  - { offsetInCU: 0x6899, offset: 0x6899, size: 0x8, addend: 0x0, symName: __ZNSt3__117__libcpp_allocateB8ne180100Emm, symObjAddr: 0x1558, symBinAddr: 0x1000020B0, symSize: 0x28 }
  - { offsetInCU: 0x68D6, offset: 0x68D6, size: 0x8, addend: 0x0, symName: __ZNSt3__121__libcpp_operator_newB8ne180100IJmEEEPvDpT_, symObjAddr: 0x1580, symBinAddr: 0x1000020D8, symSize: 0x24 }
  - { offsetInCU: 0x690F, offset: 0x690F, size: 0x8, addend: 0x0, symName: __ZNSt3__142__uninitialized_allocator_move_if_noexceptB8ne180100INS_9allocatorIiEENS_16reverse_iteratorIPiEES5_ivEET1_RT_T0_S9_S6_, symObjAddr: 0x1608, symBinAddr: 0x100002160, symSize: 0xE8 }
  - { offsetInCU: 0x698C, offset: 0x698C, size: 0x8, addend: 0x0, symName: __ZNSt3__14swapB8ne180100IPiEEvRT_S3_, symObjAddr: 0x173C, symBinAddr: 0x100002294, symSize: 0x3C }
  - { offsetInCU: 0x69DD, offset: 0x69DD, size: 0x8, addend: 0x0, symName: __ZNSt3__1neB8ne180100IPiS1_EEbRKNS_16reverse_iteratorIT_EERKNS2_IT0_EE, symObjAddr: 0x178C, symBinAddr: 0x1000022E4, symSize: 0x48 }
  - { offsetInCU: 0x6A29, offset: 0x6A29, size: 0x8, addend: 0x0, symName: __ZNSt3__114__construct_atB8ne180100IiJiEPiEEPT_S3_DpOT0_, symObjAddr: 0x17D4, symBinAddr: 0x10000232C, symSize: 0x24 }
  - { offsetInCU: 0x6A7C, offset: 0x6A7C, size: 0x8, addend: 0x0, symName: __ZNSt3__112__to_addressB8ne180100INS_16reverse_iteratorIPiEEvEEu7__decayIDTclsr19__to_address_helperIT_EE6__callclsr3stdE7declvalIRKS4_EEEEES6_, symObjAddr: 0x17F8, symBinAddr: 0x100002350, symSize: 0x24 }
  - { offsetInCU: 0x6AB2, offset: 0x6AB2, size: 0x8, addend: 0x0, symName: __ZNSt3__14moveB8ne180100INS_16reverse_iteratorIPiEES3_EET0_T_S5_S4_, symObjAddr: 0x1864, symBinAddr: 0x1000023BC, symSize: 0x78 }
  - { offsetInCU: 0x6B35, offset: 0x6B35, size: 0x8, addend: 0x0, symName: __ZNSt3__16__moveB8ne180100INS_17_ClassicAlgPolicyENS_16reverse_iteratorIPiEES4_S4_EENS_4pairIT0_T2_EES6_T1_S7_, symObjAddr: 0x194C, symBinAddr: 0x1000024A4, symSize: 0x64 }
  - { offsetInCU: 0x6BA1, offset: 0x6BA1, size: 0x8, addend: 0x0, symName: __ZNSt3__123__dispatch_copy_or_moveB8ne180100INS_17_ClassicAlgPolicyENS_11__move_loopIS1_EENS_14__move_trivialENS_16reverse_iteratorIPiEES7_S7_EENS_4pairIT2_T4_EES9_T3_SA_, symObjAddr: 0x19B0, symBinAddr: 0x100002508, symSize: 0x64 }
  - { offsetInCU: 0x6C1F, offset: 0x6C1F, size: 0x8, addend: 0x0, symName: __ZNSt3__121__unwrap_and_dispatchB8ne180100INS_10__overloadINS_11__move_loopINS_17_ClassicAlgPolicyEEENS_14__move_trivialEEENS_16reverse_iteratorIPiEES9_S9_Li0EEENS_4pairIT0_T2_EESB_T1_SC_, symObjAddr: 0x1A14, symBinAddr: 0x10000256C, symSize: 0x12C }
  - { offsetInCU: 0x6CAF, offset: 0x6CAF, size: 0x8, addend: 0x0, symName: __ZNSt3__114__unwrap_rangeB8ne180100INS_16reverse_iteratorIPiEES3_EENS_4pairIT0_S5_EET_S7_, symObjAddr: 0x1B40, symBinAddr: 0x100002698, symSize: 0x84 }
  - { offsetInCU: 0x6E03, offset: 0x6E03, size: 0x8, addend: 0x0, symName: __ZNSt3__113__unwrap_iterB8ne180100INS_16reverse_iteratorIPiEENS_18__unwrap_iter_implIS3_Lb0EEELi0EEEDTclsrT0_8__unwrapclsr3stdE7declvalIT_EEEES7_, symObjAddr: 0x1C64, symBinAddr: 0x1000027BC, symSize: 0x44 }
  - { offsetInCU: 0x6E47, offset: 0x6E47, size: 0x8, addend: 0x0, symName: __ZNSt3__19make_pairB8ne180100INS_16reverse_iteratorIPiEES3_EENS_4pairINS_18__unwrap_ref_decayIT_E4typeENS5_IT0_E4typeEEEOS6_OS9_, symObjAddr: 0x1CA8, symBinAddr: 0x100002800, symSize: 0x38 }
  - { offsetInCU: 0x6E96, offset: 0x6E96, size: 0x8, addend: 0x0, symName: __ZNSt3__114__rewrap_rangeB8ne180100INS_16reverse_iteratorIPiEES3_EET_S4_T0_, symObjAddr: 0x1CE0, symBinAddr: 0x100002838, symSize: 0x5C }
  - { offsetInCU: 0x6EE2, offset: 0x6EE2, size: 0x8, addend: 0x0, symName: __ZNSt3__113__rewrap_iterB8ne180100INS_16reverse_iteratorIPiEES3_NS_18__unwrap_iter_implIS3_Lb0EEEEET_S6_T0_, symObjAddr: 0x1D3C, symBinAddr: 0x100002894, symSize: 0x88 }
  - { offsetInCU: 0x6FE1, offset: 0x6FE1, size: 0x8, addend: 0x0, symName: __ZNSt3__19use_facetB8ne180100INS_5ctypeIcEEEERKT_RKNS_6localeE, symObjAddr: 0x233C, symBinAddr: 0x100002E94, symSize: 0x2C }
  - { offsetInCU: 0x74AE, offset: 0x74AE, size: 0x8, addend: 0x0, symName: __ZNSt3__116__pad_and_outputB8ne180100IcNS_11char_traitsIcEEEENS_19ostreambuf_iteratorIT_T0_EES6_PKS4_S8_S8_RNS_8ios_baseES4_, symObjAddr: 0x25F8, symBinAddr: 0x100003150, symSize: 0x248 }
  - { offsetInCU: 0x757D, offset: 0x757D, size: 0x8, addend: 0x0, symName: __ZNSt3__112__to_addressB8ne180100IKcEEPT_S3_, symObjAddr: 0x2B68, symBinAddr: 0x1000036C0, symSize: 0x14 }
  - { offsetInCU: 0x75E5, offset: 0x75E5, size: 0x8, addend: 0x0, symName: __ZNSt3__118__constexpr_strlenB8ne180100EPKc, symObjAddr: 0x2E08, symBinAddr: 0x100003960, symSize: 0x24 }
  - { offsetInCU: 0x7825, offset: 0x7825, size: 0x8, addend: 0x0, symName: __ZSt28__throw_bad_array_new_lengthB8ne180100v, symObjAddr: 0x1524, symBinAddr: 0x10000207C, symSize: 0x34 }
  - { offsetInCU: 0x7CB7, offset: 0x7CB7, size: 0x8, addend: 0x0, symName: __ZNSt3__16vectorIiNS_9allocatorIiEEE26__swap_out_circular_bufferERNS_14__split_bufferIiRS2_EE, symObjAddr: 0xE00, symBinAddr: 0x100001958, symSize: 0x110 }
  - { offsetInCU: 0xA08A, offset: 0xA08A, size: 0x8, addend: 0x0, symName: __Z15convertToBinaryi, symObjAddr: 0x0, symBinAddr: 0x100000B58, symSize: 0x13C }
  - { offsetInCU: 0xA0FB, offset: 0xA0FB, size: 0x8, addend: 0x0, symName: __ZNSt3__16vectorIiNS_9allocatorIiEEEC1B8ne180100Ev, symObjAddr: 0x13C, symBinAddr: 0x100000C94, symSize: 0x2C }
  - { offsetInCU: 0xA123, offset: 0xA123, size: 0x8, addend: 0x0, symName: __ZNSt3__16vectorIiNS_9allocatorIiEEE9push_backB8ne180100EOi, symObjAddr: 0x168, symBinAddr: 0x100000CC0, symSize: 0x90 }
  - { offsetInCU: 0xA167, offset: 0xA167, size: 0x8, addend: 0x0, symName: __ZNSt3__16vectorIiNS_9allocatorIiEEE9push_backB8ne180100ERKi, symObjAddr: 0x1F8, symBinAddr: 0x100000D50, symSize: 0x90 }
  - { offsetInCU: 0xA1AC, offset: 0xA1AC, size: 0x8, addend: 0x0, symName: __ZNKSt3__16vectorIiNS_9allocatorIiEEE4sizeB8ne180100Ev, symObjAddr: 0x288, symBinAddr: 0x100000DE0, symSize: 0x28 }
  - { offsetInCU: 0xA1D1, offset: 0xA1D1, size: 0x8, addend: 0x0, symName: __ZNSt3__16vectorIiNS_9allocatorIiEEEixB8ne180100Em, symObjAddr: 0x2B0, symBinAddr: 0x100000E08, symSize: 0x24 }
  - { offsetInCU: 0xA207, offset: 0xA207, size: 0x8, addend: 0x0, symName: __ZNSt3__113basic_ostreamIcNS_11char_traitsIcEEElsB8ne180100EPFRS3_S4_E, symObjAddr: 0x2D4, symBinAddr: 0x100000E2C, symSize: 0x2C }
  - { offsetInCU: 0xA23A, offset: 0xA23A, size: 0x8, addend: 0x0, symName: __ZNSt3__16vectorIiNS_9allocatorIiEEED1B8ne180100Ev, symObjAddr: 0x358, symBinAddr: 0x100000EB0, symSize: 0x2C }
  - { offsetInCU: 0xA263, offset: 0xA263, size: 0x8, addend: 0x0, symName: _main, symObjAddr: 0x390, symBinAddr: 0x100000EE8, symSize: 0x60 }
  - { offsetInCU: 0xA28C, offset: 0xA28C, size: 0x8, addend: 0x0, symName: __ZNSt3__16vectorIiNS_9allocatorIiEEEC2B8ne180100Ev, symObjAddr: 0x438, symBinAddr: 0x100000F90, symSize: 0x44 }
  - { offsetInCU: 0xA2BF, offset: 0xA2BF, size: 0x8, addend: 0x0, symName: __ZNSt3__117__compressed_pairIPiNS_9allocatorIiEEEC1B8ne180100IDnNS_18__default_init_tagEEEOT_OT0_, symObjAddr: 0x47C, symBinAddr: 0x100000FD4, symSize: 0x3C }
  - { offsetInCU: 0xA316, offset: 0xA316, size: 0x8, addend: 0x0, symName: __ZNSt3__117__compressed_pairIPiNS_9allocatorIiEEEC2B8ne180100IDnNS_18__default_init_tagEEEOT_OT0_, symObjAddr: 0x4B8, symBinAddr: 0x100001010, symSize: 0x40 }
  - { offsetInCU: 0xA36D, offset: 0xA36D, size: 0x8, addend: 0x0, symName: __ZNSt3__122__compressed_pair_elemIPiLi0ELb0EEC2B8ne180100IDnvEEOT_, symObjAddr: 0x4F8, symBinAddr: 0x100001050, symSize: 0x1C }
  - { offsetInCU: 0xA3AE, offset: 0xA3AE, size: 0x8, addend: 0x0, symName: __ZNSt3__122__compressed_pair_elemINS_9allocatorIiEELi1ELb1EEC2B8ne180100ENS_18__default_init_tagE, symObjAddr: 0x514, symBinAddr: 0x10000106C, symSize: 0x2C }
  - { offsetInCU: 0xA3E2, offset: 0xA3E2, size: 0x8, addend: 0x0, symName: __ZNSt3__19allocatorIiEC2B8ne180100Ev, symObjAddr: 0x540, symBinAddr: 0x100001098, symSize: 0x2C }
  - { offsetInCU: 0xA40B, offset: 0xA40B, size: 0x8, addend: 0x0, symName: __ZNSt3__116__non_trivial_ifILb1ENS_9allocatorIiEEEC2B8ne180100Ev, symObjAddr: 0x56C, symBinAddr: 0x1000010C4, symSize: 0x14 }
  - { offsetInCU: 0xA434, offset: 0xA434, size: 0x8, addend: 0x0, symName: __ZNSt3__16vectorIiNS_9allocatorIiEEED2B8ne180100Ev, symObjAddr: 0x580, symBinAddr: 0x1000010D8, symSize: 0x3C }
  - { offsetInCU: 0xA45D, offset: 0xA45D, size: 0x8, addend: 0x0, symName: __ZNSt3__16vectorIiNS_9allocatorIiEEE16__destroy_vectorC1B8ne180100ERS3_, symObjAddr: 0x5BC, symBinAddr: 0x100001114, symSize: 0x34 }
  - { offsetInCU: 0xA495, offset: 0xA495, size: 0x8, addend: 0x0, symName: __ZNSt3__16vectorIiNS_9allocatorIiEEE16__destroy_vectorclB8ne180100Ev, symObjAddr: 0x5F0, symBinAddr: 0x100001148, symSize: 0x90 }
  - { offsetInCU: 0xA4BA, offset: 0xA4BA, size: 0x8, addend: 0x0, symName: __ZNSt3__16vectorIiNS_9allocatorIiEEE16__destroy_vectorC2B8ne180100ERS3_, symObjAddr: 0x680, symBinAddr: 0x1000011D8, symSize: 0x20 }
  - { offsetInCU: 0xA4F2, offset: 0xA4F2, size: 0x8, addend: 0x0, symName: __ZNSt3__16vectorIiNS_9allocatorIiEEE7__clearB8ne180100Ev, symObjAddr: 0x6A0, symBinAddr: 0x1000011F8, symSize: 0x28 }
  - { offsetInCU: 0xA517, offset: 0xA517, size: 0x8, addend: 0x0, symName: __ZNKSt3__16vectorIiNS_9allocatorIiEEE17__annotate_deleteB8ne180100Ev, symObjAddr: 0x6C8, symBinAddr: 0x100001220, symSize: 0x10 }
  - { offsetInCU: 0xA53C, offset: 0xA53C, size: 0x8, addend: 0x0, symName: __ZNSt3__116allocator_traitsINS_9allocatorIiEEE10deallocateB8ne180100ERS2_Pim, symObjAddr: 0x6D8, symBinAddr: 0x100001230, symSize: 0x34 }
  - { offsetInCU: 0xA57E, offset: 0xA57E, size: 0x8, addend: 0x0, symName: __ZNSt3__16vectorIiNS_9allocatorIiEEE7__allocB8ne180100Ev, symObjAddr: 0x70C, symBinAddr: 0x100001264, symSize: 0x28 }
  - { offsetInCU: 0xA5A3, offset: 0xA5A3, size: 0x8, addend: 0x0, symName: __ZNKSt3__16vectorIiNS_9allocatorIiEEE8capacityB8ne180100Ev, symObjAddr: 0x734, symBinAddr: 0x10000128C, symSize: 0x40 }
  - { offsetInCU: 0xA5C8, offset: 0xA5C8, size: 0x8, addend: 0x0, symName: __ZNSt3__16vectorIiNS_9allocatorIiEEE22__base_destruct_at_endB8ne180100EPi, symObjAddr: 0x774, symBinAddr: 0x1000012CC, symSize: 0xA0 }
  - { offsetInCU: 0xA60B, offset: 0xA60B, size: 0x8, addend: 0x0, symName: __ZNSt3__116allocator_traitsINS_9allocatorIiEEE7destroyB8ne180100IivEEvRS2_PT_, symObjAddr: 0x814, symBinAddr: 0x10000136C, symSize: 0x2C }
  - { offsetInCU: 0xA648, offset: 0xA648, size: 0x8, addend: 0x0, symName: __ZNSt3__19allocatorIiE7destroyB8ne180100EPi, symObjAddr: 0x854, symBinAddr: 0x1000013AC, symSize: 0x14 }
  - { offsetInCU: 0xA67B, offset: 0xA67B, size: 0x8, addend: 0x0, symName: __ZNSt3__19allocatorIiE10deallocateB8ne180100EPim, symObjAddr: 0x868, symBinAddr: 0x1000013C0, symSize: 0x70 }
  - { offsetInCU: 0xA6BC, offset: 0xA6BC, size: 0x8, addend: 0x0, symName: __ZNSt3__117__compressed_pairIPiNS_9allocatorIiEEE6secondB8ne180100Ev, symObjAddr: 0x960, symBinAddr: 0x1000014B8, symSize: 0x24 }
  - { offsetInCU: 0xA6E1, offset: 0xA6E1, size: 0x8, addend: 0x0, symName: __ZNSt3__122__compressed_pair_elemINS_9allocatorIiEELi1ELb1EE5__getB8ne180100Ev, symObjAddr: 0x984, symBinAddr: 0x1000014DC, symSize: 0x14 }
  - { offsetInCU: 0xA706, offset: 0xA706, size: 0x8, addend: 0x0, symName: __ZNKSt3__16vectorIiNS_9allocatorIiEEE9__end_capB8ne180100Ev, symObjAddr: 0x998, symBinAddr: 0x1000014F0, symSize: 0x28 }
  - { offsetInCU: 0xA72B, offset: 0xA72B, size: 0x8, addend: 0x0, symName: __ZNKSt3__117__compressed_pairIPiNS_9allocatorIiEEE5firstB8ne180100Ev, symObjAddr: 0x9C0, symBinAddr: 0x100001518, symSize: 0x24 }
  - { offsetInCU: 0xA750, offset: 0xA750, size: 0x8, addend: 0x0, symName: __ZNKSt3__122__compressed_pair_elemIPiLi0ELb0EE5__getB8ne180100Ev, symObjAddr: 0x9E4, symBinAddr: 0x10000153C, symSize: 0x14 }
  - { offsetInCU: 0xA775, offset: 0xA775, size: 0x8, addend: 0x0, symName: __ZNSt3__16vectorIiNS_9allocatorIiEEE9__end_capB8ne180100Ev, symObjAddr: 0x9F8, symBinAddr: 0x100001550, symSize: 0x28 }
  - { offsetInCU: 0xA79F, offset: 0xA79F, size: 0x8, addend: 0x0, symName: __ZNSt3__16vectorIiNS_9allocatorIiEEE22__construct_one_at_endB8ne180100IJiEEEvDpOT_, symObjAddr: 0xA20, symBinAddr: 0x100001578, symSize: 0x98 }
  - { offsetInCU: 0xA7EC, offset: 0xA7EC, size: 0x8, addend: 0x0, symName: __ZNSt3__16vectorIiNS_9allocatorIiEEE21__push_back_slow_pathIiEEPiOT_, symObjAddr: 0xAB8, symBinAddr: 0x100001610, symSize: 0xF0 }
  - { offsetInCU: 0xA849, offset: 0xA849, size: 0x8, addend: 0x0, symName: __ZNSt3__117__compressed_pairIPiNS_9allocatorIiEEE5firstB8ne180100Ev, symObjAddr: 0xBA8, symBinAddr: 0x100001700, symSize: 0x24 }
  - { offsetInCU: 0xA86E, offset: 0xA86E, size: 0x8, addend: 0x0, symName: __ZNSt3__122__compressed_pair_elemIPiLi0ELb0EE5__getB8ne180100Ev, symObjAddr: 0xBCC, symBinAddr: 0x100001724, symSize: 0x14 }
  - { offsetInCU: 0xA8AC, offset: 0xA8AC, size: 0x8, addend: 0x0, symName: __ZNSt3__16vectorIiNS_9allocatorIiEEE21_ConstructTransactionC1B8ne180100ERS3_m, symObjAddr: 0xBE0, symBinAddr: 0x100001738, symSize: 0x3C }
  - { offsetInCU: 0xA8F3, offset: 0xA8F3, size: 0x8, addend: 0x0, symName: __ZNSt3__116allocator_traitsINS_9allocatorIiEEE9constructB8ne180100IiJiEvEEvRS2_PT_DpOT0_, symObjAddr: 0xC1C, symBinAddr: 0x100001774, symSize: 0x34 }
  - { offsetInCU: 0xA94A, offset: 0xA94A, size: 0x8, addend: 0x0, symName: __ZNSt3__16vectorIiNS_9allocatorIiEEE21_ConstructTransactionD1B8ne180100Ev, symObjAddr: 0xC50, symBinAddr: 0x1000017A8, symSize: 0x2C }
  - { offsetInCU: 0xA973, offset: 0xA973, size: 0x8, addend: 0x0, symName: __ZNSt3__16vectorIiNS_9allocatorIiEEE21_ConstructTransactionC2B8ne180100ERS3_m, symObjAddr: 0xC7C, symBinAddr: 0x1000017D4, symSize: 0x44 }
  - { offsetInCU: 0xA9BA, offset: 0xA9BA, size: 0x8, addend: 0x0, symName: __ZNSt3__19allocatorIiE9constructB8ne180100IiJiEEEvPT_DpOT0_, symObjAddr: 0xCC0, symBinAddr: 0x100001818, symSize: 0x28 }
  - { offsetInCU: 0xAA0F, offset: 0xAA0F, size: 0x8, addend: 0x0, symName: __ZNSt3__16vectorIiNS_9allocatorIiEEE21_ConstructTransactionD2B8ne180100Ev, symObjAddr: 0xCE8, symBinAddr: 0x100001840, symSize: 0x20 }
  - { offsetInCU: 0xAA37, offset: 0xAA37, size: 0x8, addend: 0x0, symName: __ZNKSt3__16vectorIiNS_9allocatorIiEEE11__recommendB8ne180100Em, symObjAddr: 0xD08, symBinAddr: 0x100001860, symSize: 0xB4 }
  - { offsetInCU: 0xAA8B, offset: 0xAA8B, size: 0x8, addend: 0x0, symName: __ZNSt3__114__split_bufferIiRNS_9allocatorIiEEEC1EmmS3_, symObjAddr: 0xDBC, symBinAddr: 0x100001914, symSize: 0x44 }
  - { offsetInCU: 0xAAE0, offset: 0xAAE0, size: 0x8, addend: 0x0, symName: __ZNSt3__114__split_bufferIiRNS_9allocatorIiEEED1Ev, symObjAddr: 0xF10, symBinAddr: 0x100001A68, symSize: 0x2C }
  - { offsetInCU: 0xAB0A, offset: 0xAB0A, size: 0x8, addend: 0x0, symName: __ZNKSt3__16vectorIiNS_9allocatorIiEEE8max_sizeEv, symObjAddr: 0xF3C, symBinAddr: 0x100001A94, symSize: 0x74 }
  - { offsetInCU: 0xAB31, offset: 0xAB31, size: 0x8, addend: 0x0, symName: __ZNKSt3__16vectorIiNS_9allocatorIiEEE20__throw_length_errorB8ne180100Ev, symObjAddr: 0xFB0, symBinAddr: 0x100001B08, symSize: 0x1C }
  - { offsetInCU: 0xAB60, offset: 0xAB60, size: 0x8, addend: 0x0, symName: __ZNSt3__116allocator_traitsINS_9allocatorIiEEE8max_sizeB8ne180100IS2_vEEmRKS2_, symObjAddr: 0x1024, symBinAddr: 0x100001B7C, symSize: 0x24 }
  - { offsetInCU: 0xAB8E, offset: 0xAB8E, size: 0x8, addend: 0x0, symName: __ZNKSt3__16vectorIiNS_9allocatorIiEEE7__allocB8ne180100Ev, symObjAddr: 0x1048, symBinAddr: 0x100001BA0, symSize: 0x28 }
  - { offsetInCU: 0xABB3, offset: 0xABB3, size: 0x8, addend: 0x0, symName: __ZNSt3__114numeric_limitsIlE3maxB8ne180100Ev, symObjAddr: 0x1070, symBinAddr: 0x100001BC8, symSize: 0x14 }
  - { offsetInCU: 0xABDB, offset: 0xABDB, size: 0x8, addend: 0x0, symName: __ZNKSt3__16__lessIvvEclB8ne180100ImmEEbRKT_RKT0_, symObjAddr: 0x10D8, symBinAddr: 0x100001C30, symSize: 0x34 }
  - { offsetInCU: 0xAC2E, offset: 0xAC2E, size: 0x8, addend: 0x0, symName: __ZNKSt3__19allocatorIiE8max_sizeB8ne180100Ev, symObjAddr: 0x110C, symBinAddr: 0x100001C64, symSize: 0x14 }
  - { offsetInCU: 0xAC53, offset: 0xAC53, size: 0x8, addend: 0x0, symName: __ZNKSt3__117__compressed_pairIPiNS_9allocatorIiEEE6secondB8ne180100Ev, symObjAddr: 0x1120, symBinAddr: 0x100001C78, symSize: 0x24 }
  - { offsetInCU: 0xAC78, offset: 0xAC78, size: 0x8, addend: 0x0, symName: __ZNKSt3__122__compressed_pair_elemINS_9allocatorIiEELi1ELb1EE5__getB8ne180100Ev, symObjAddr: 0x1144, symBinAddr: 0x100001C9C, symSize: 0x14 }
  - { offsetInCU: 0xAC9D, offset: 0xAC9D, size: 0x8, addend: 0x0, symName: __ZNSt3__123__libcpp_numeric_limitsIlLb1EE3maxB8ne180100Ev, symObjAddr: 0x1158, symBinAddr: 0x100001CB0, symSize: 0x8 }
  - { offsetInCU: 0xACB1, offset: 0xACB1, size: 0x8, addend: 0x0, symName: __ZNSt12length_errorC1B8ne180100EPKc, symObjAddr: 0x11C4, symBinAddr: 0x100001D1C, symSize: 0x34 }
  - { offsetInCU: 0xACE8, offset: 0xACE8, size: 0x8, addend: 0x0, symName: __ZNSt12length_errorC2B8ne180100EPKc, symObjAddr: 0x11F8, symBinAddr: 0x100001D50, symSize: 0x4C }
  - { offsetInCU: 0xAD1F, offset: 0xAD1F, size: 0x8, addend: 0x0, symName: __ZNSt3__114__split_bufferIiRNS_9allocatorIiEEEC2EmmS3_, symObjAddr: 0x1298, symBinAddr: 0x100001DF0, symSize: 0xD4 }
  - { offsetInCU: 0xAD92, offset: 0xAD92, size: 0x8, addend: 0x0, symName: __ZNSt3__117__compressed_pairIPiRNS_9allocatorIiEEEC1B8ne180100IDnS4_EEOT_OT0_, symObjAddr: 0x136C, symBinAddr: 0x100001EC4, symSize: 0x3C }
  - { offsetInCU: 0xADE9, offset: 0xADE9, size: 0x8, addend: 0x0, symName: __ZNSt3__114__split_bufferIiRNS_9allocatorIiEEE7__allocB8ne180100Ev, symObjAddr: 0x13E8, symBinAddr: 0x100001F40, symSize: 0x28 }
  - { offsetInCU: 0xAE0E, offset: 0xAE0E, size: 0x8, addend: 0x0, symName: __ZNSt3__114__split_bufferIiRNS_9allocatorIiEEE9__end_capB8ne180100Ev, symObjAddr: 0x1410, symBinAddr: 0x100001F68, symSize: 0x28 }
  - { offsetInCU: 0xAE33, offset: 0xAE33, size: 0x8, addend: 0x0, symName: __ZNSt3__117__compressed_pairIPiRNS_9allocatorIiEEEC2B8ne180100IDnS4_EEOT_OT0_, symObjAddr: 0x1438, symBinAddr: 0x100001F90, symSize: 0x48 }
  - { offsetInCU: 0xAE8A, offset: 0xAE8A, size: 0x8, addend: 0x0, symName: __ZNSt3__122__compressed_pair_elemIRNS_9allocatorIiEELi1ELb0EEC2B8ne180100IS3_vEEOT_, symObjAddr: 0x1480, symBinAddr: 0x100001FD8, symSize: 0x20 }
  - { offsetInCU: 0xAECB, offset: 0xAECB, size: 0x8, addend: 0x0, symName: __ZNSt3__19allocatorIiE8allocateB8ne180100Em, symObjAddr: 0x14A0, symBinAddr: 0x100001FF8, symSize: 0x84 }
  - { offsetInCU: 0xAEFE, offset: 0xAEFE, size: 0x8, addend: 0x0, symName: __ZNSt3__117__compressed_pairIPiRNS_9allocatorIiEEE6secondB8ne180100Ev, symObjAddr: 0x15A4, symBinAddr: 0x1000020FC, symSize: 0x28 }
  - { offsetInCU: 0xAF23, offset: 0xAF23, size: 0x8, addend: 0x0, symName: __ZNSt3__122__compressed_pair_elemIRNS_9allocatorIiEELi1ELb0EE5__getB8ne180100Ev, symObjAddr: 0x15CC, symBinAddr: 0x100002124, symSize: 0x18 }
  - { offsetInCU: 0xAF48, offset: 0xAF48, size: 0x8, addend: 0x0, symName: __ZNSt3__117__compressed_pairIPiRNS_9allocatorIiEEE5firstB8ne180100Ev, symObjAddr: 0x15E4, symBinAddr: 0x10000213C, symSize: 0x24 }
  - { offsetInCU: 0xAF6D, offset: 0xAF6D, size: 0x8, addend: 0x0, symName: __ZNSt3__116reverse_iteratorIPiEC1B8ne180100ES1_, symObjAddr: 0x16F0, symBinAddr: 0x100002248, symSize: 0x34 }
  - { offsetInCU: 0xAFA4, offset: 0xAFA4, size: 0x8, addend: 0x0, symName: __ZNKSt3__116reverse_iteratorIPiE4baseB8ne180100Ev, symObjAddr: 0x1724, symBinAddr: 0x10000227C, symSize: 0x18 }
  - { offsetInCU: 0xAFC9, offset: 0xAFC9, size: 0x8, addend: 0x0, symName: __ZNKSt3__16vectorIiNS_9allocatorIiEEE14__annotate_newB8ne180100Em, symObjAddr: 0x1778, symBinAddr: 0x1000022D0, symSize: 0x14 }
  - { offsetInCU: 0xAFFD, offset: 0xAFFD, size: 0x8, addend: 0x0, symName: __ZNKSt3__116reverse_iteratorIPiEdeB8ne180100Ev, symObjAddr: 0x181C, symBinAddr: 0x100002374, symSize: 0x28 }
  - { offsetInCU: 0xB030, offset: 0xB030, size: 0x8, addend: 0x0, symName: __ZNSt3__116reverse_iteratorIPiEppB8ne180100Ev, symObjAddr: 0x1844, symBinAddr: 0x10000239C, symSize: 0x20 }
  - { offsetInCU: 0xB05A, offset: 0xB05A, size: 0x8, addend: 0x0, symName: __ZNSt3__119__to_address_helperINS_16reverse_iteratorIPiEEvE6__callB8ne180100ERKS3_, symObjAddr: 0x18DC, symBinAddr: 0x100002434, symSize: 0x4C }
  - { offsetInCU: 0xB07D, offset: 0xB07D, size: 0x8, addend: 0x0, symName: __ZNKSt3__116reverse_iteratorIPiEptB8ne180100Ev, symObjAddr: 0x1928, symBinAddr: 0x100002480, symSize: 0x24 }
  - { offsetInCU: 0xB0C5, offset: 0xB0C5, size: 0x8, addend: 0x0, symName: __ZNKSt3__111__move_loopINS_17_ClassicAlgPolicyEEclB8ne180100INS_16reverse_iteratorIPiEES6_S6_EENS_4pairIT_T1_EES8_T0_S9_, symObjAddr: 0x1BC4, symBinAddr: 0x10000271C, symSize: 0xA0 }
  - { offsetInCU: 0xB134, offset: 0xB134, size: 0x8, addend: 0x0, symName: __ZNSt3__18_IterOpsINS_17_ClassicAlgPolicyEE11__iter_moveB8ne180100IRNS_16reverse_iteratorIPiEELi0EEEDTclsr3stdE4movedeclsr3stdE7declvalIRT_EEEEOS8_, symObjAddr: 0x1DC4, symBinAddr: 0x10000291C, symSize: 0x28 }
  - { offsetInCU: 0xB166, offset: 0xB166, size: 0x8, addend: 0x0, symName: __ZNSt3__18_IterOpsINS_17_ClassicAlgPolicyEE25__validate_iter_referenceB8ne180100IRNS_16reverse_iteratorIPiEEEEvv, symObjAddr: 0x1DEC, symBinAddr: 0x100002944, symSize: 0x4 }
  - { offsetInCU: 0xB184, offset: 0xB184, size: 0x8, addend: 0x0, symName: __ZNSt3__118__unwrap_iter_implINS_16reverse_iteratorIPiEELb0EE8__unwrapB8ne180100ES3_, symObjAddr: 0x1DF0, symBinAddr: 0x100002948, symSize: 0x24 }
  - { offsetInCU: 0xB1A7, offset: 0xB1A7, size: 0x8, addend: 0x0, symName: __ZNSt3__14pairINS_16reverse_iteratorIPiEES3_EC1B8ne180100ERKS3_S6_, symObjAddr: 0x1E14, symBinAddr: 0x10000296C, symSize: 0x3C }
  - { offsetInCU: 0xB1EC, offset: 0xB1EC, size: 0x8, addend: 0x0, symName: __ZNSt3__14pairINS_16reverse_iteratorIPiEES3_EC2B8ne180100ERKS3_S6_, symObjAddr: 0x1E50, symBinAddr: 0x1000029A8, symSize: 0x34 }
  - { offsetInCU: 0xB231, offset: 0xB231, size: 0x8, addend: 0x0, symName: __ZNSt3__118__unwrap_iter_implINS_16reverse_iteratorIPiEELb0EE8__rewrapB8ne180100ES3_S3_, symObjAddr: 0x1E84, symBinAddr: 0x1000029DC, symSize: 0x2C }
  - { offsetInCU: 0xB25F, offset: 0xB25F, size: 0x8, addend: 0x0, symName: __ZNSt3__116reverse_iteratorIPiEC2B8ne180100ES1_, symObjAddr: 0x1EB0, symBinAddr: 0x100002A08, symSize: 0x28 }
  - { offsetInCU: 0xB296, offset: 0xB296, size: 0x8, addend: 0x0, symName: __ZNSt3__114__split_bufferIiRNS_9allocatorIiEEED2Ev, symObjAddr: 0x1ED8, symBinAddr: 0x100002A30, symSize: 0x80 }
  - { offsetInCU: 0xB2C1, offset: 0xB2C1, size: 0x8, addend: 0x0, symName: __ZNSt3__114__split_bufferIiRNS_9allocatorIiEEE5clearB8ne180100Ev, symObjAddr: 0x1F58, symBinAddr: 0x100002AB0, symSize: 0x28 }
  - { offsetInCU: 0xB2E6, offset: 0xB2E6, size: 0x8, addend: 0x0, symName: __ZNKSt3__114__split_bufferIiRNS_9allocatorIiEEE8capacityB8ne180100Ev, symObjAddr: 0x1F80, symBinAddr: 0x100002AD8, symSize: 0x40 }
  - { offsetInCU: 0xB30B, offset: 0xB30B, size: 0x8, addend: 0x0, symName: __ZNSt3__114__split_bufferIiRNS_9allocatorIiEEE17__destruct_at_endB8ne180100EPi, symObjAddr: 0x1FC0, symBinAddr: 0x100002B18, symSize: 0x2C }
  - { offsetInCU: 0xB33D, offset: 0xB33D, size: 0x8, addend: 0x0, symName: __ZNSt3__114__split_bufferIiRNS_9allocatorIiEEE17__destruct_at_endB8ne180100EPiNS_17integral_constantIbLb0EEE, symObjAddr: 0x1FEC, symBinAddr: 0x100002B44, symSize: 0x94 }
  - { offsetInCU: 0xB37D, offset: 0xB37D, size: 0x8, addend: 0x0, symName: __ZNKSt3__114__split_bufferIiRNS_9allocatorIiEEE9__end_capB8ne180100Ev, symObjAddr: 0x2080, symBinAddr: 0x100002BD8, symSize: 0x28 }
  - { offsetInCU: 0xB3A2, offset: 0xB3A2, size: 0x8, addend: 0x0, symName: __ZNKSt3__117__compressed_pairIPiRNS_9allocatorIiEEE5firstB8ne180100Ev, symObjAddr: 0x20A8, symBinAddr: 0x100002C00, symSize: 0x24 }
  - { offsetInCU: 0xB3C7, offset: 0xB3C7, size: 0x8, addend: 0x0, symName: __ZNSt3__16vectorIiNS_9allocatorIiEEE22__construct_one_at_endB8ne180100IJRKiEEEvDpOT_, symObjAddr: 0x20CC, symBinAddr: 0x100002C24, symSize: 0x98 }
  - { offsetInCU: 0xB414, offset: 0xB414, size: 0x8, addend: 0x0, symName: __ZNSt3__16vectorIiNS_9allocatorIiEEE21__push_back_slow_pathIRKiEEPiOT_, symObjAddr: 0x2164, symBinAddr: 0x100002CBC, symSize: 0xF0 }
  - { offsetInCU: 0xB471, offset: 0xB471, size: 0x8, addend: 0x0, symName: __ZNSt3__116allocator_traitsINS_9allocatorIiEEE9constructB8ne180100IiJRKiEvEEvRS2_PT_DpOT0_, symObjAddr: 0x2254, symBinAddr: 0x100002DAC, symSize: 0x34 }
  - { offsetInCU: 0xB4C8, offset: 0xB4C8, size: 0x8, addend: 0x0, symName: __ZNSt3__19allocatorIiE9constructB8ne180100IiJRKiEEEvPT_DpOT0_, symObjAddr: 0x2288, symBinAddr: 0x100002DE0, symSize: 0x28 }
  - { offsetInCU: 0xB51C, offset: 0xB51C, size: 0x8, addend: 0x0, symName: __ZNKSt3__19basic_iosIcNS_11char_traitsIcEEE5widenB8ne180100Ec, symObjAddr: 0x22B0, symBinAddr: 0x100002E08, symSize: 0x8C }
  - { offsetInCU: 0xB589, offset: 0xB589, size: 0x8, addend: 0x0, symName: __ZNKSt3__15ctypeIcE5widenB8ne180100Ec, symObjAddr: 0x2368, symBinAddr: 0x100002EC0, symSize: 0x38 }
  - { offsetInCU: 0xB5BD, offset: 0xB5BD, size: 0x8, addend: 0x0, symName: __ZNSt3__111char_traitsIcE6lengthB8ne180100EPKc, symObjAddr: 0x2594, symBinAddr: 0x1000030EC, symSize: 0x48 }
  - { offsetInCU: 0xB5FE, offset: 0xB5FE, size: 0x8, addend: 0x0, symName: __ZNKSt3__113basic_ostreamIcNS_11char_traitsIcEEE6sentrycvbB8ne180100Ev, symObjAddr: 0x25DC, symBinAddr: 0x100003134, symSize: 0x1C }
  - { offsetInCU: 0xB623, offset: 0xB623, size: 0x8, addend: 0x0, symName: __ZNSt3__119ostreambuf_iteratorIcNS_11char_traitsIcEEEC1B8ne180100ERNS_13basic_ostreamIcS2_EE, symObjAddr: 0x2840, symBinAddr: 0x100003398, symSize: 0x34 }
  - { offsetInCU: 0xB65A, offset: 0xB65A, size: 0x8, addend: 0x0, symName: __ZNKSt3__18ios_base5flagsB8ne180100Ev, symObjAddr: 0x2874, symBinAddr: 0x1000033CC, symSize: 0x18 }
  - { offsetInCU: 0xB680, offset: 0xB680, size: 0x8, addend: 0x0, symName: __ZNKSt3__19basic_iosIcNS_11char_traitsIcEEE4fillB8ne180100Ev, symObjAddr: 0x288C, symBinAddr: 0x1000033E4, symSize: 0x64 }
  - { offsetInCU: 0xB6A7, offset: 0xB6A7, size: 0x8, addend: 0x0, symName: __ZNKSt3__119ostreambuf_iteratorIcNS_11char_traitsIcEEE6failedB8ne180100Ev, symObjAddr: 0x28F0, symBinAddr: 0x100003448, symSize: 0x24 }
  - { offsetInCU: 0xB6CC, offset: 0xB6CC, size: 0x8, addend: 0x0, symName: __ZNSt3__19basic_iosIcNS_11char_traitsIcEEE8setstateB8ne180100Ej, symObjAddr: 0x2914, symBinAddr: 0x10000346C, symSize: 0x2C }
  - { offsetInCU: 0xB700, offset: 0xB700, size: 0x8, addend: 0x0, symName: __ZNKSt3__18ios_base5widthB8ne180100Ev, symObjAddr: 0x2940, symBinAddr: 0x100003498, symSize: 0x18 }
  - { offsetInCU: 0xB727, offset: 0xB727, size: 0x8, addend: 0x0, symName: __ZNSt3__115basic_streambufIcNS_11char_traitsIcEEE5sputnB8ne180100EPKcl, symObjAddr: 0x2958, symBinAddr: 0x1000034B0, symSize: 0x3C }
  - { offsetInCU: 0xB768, offset: 0xB768, size: 0x8, addend: 0x0, symName: __ZNSt3__112basic_stringIcNS_11char_traitsIcEENS_9allocatorIcEEEC1B8ne180100Emc, symObjAddr: 0x2994, symBinAddr: 0x1000034EC, symSize: 0x3C }
  - { offsetInCU: 0xB7AF, offset: 0xB7AF, size: 0x8, addend: 0x0, symName: __ZNKSt3__112basic_stringIcNS_11char_traitsIcEENS_9allocatorIcEEE4dataB8ne180100Ev, symObjAddr: 0x29D0, symBinAddr: 0x100003528, symSize: 0x28 }
  - { offsetInCU: 0xB7D4, offset: 0xB7D4, size: 0x8, addend: 0x0, symName: __ZNSt3__18ios_base5widthB8ne180100El, symObjAddr: 0x29F8, symBinAddr: 0x100003550, symSize: 0x2C }
  - { offsetInCU: 0xB819, offset: 0xB819, size: 0x8, addend: 0x0, symName: __ZNSt3__112basic_stringIcNS_11char_traitsIcEENS_9allocatorIcEEEC2B8ne180100Emc, symObjAddr: 0x2A24, symBinAddr: 0x10000357C, symSize: 0x4C }
  - { offsetInCU: 0xB860, offset: 0xB860, size: 0x8, addend: 0x0, symName: __ZNSt3__117__compressed_pairINS_12basic_stringIcNS_11char_traitsIcEENS_9allocatorIcEEE5__repES5_EC1B8ne180100INS_18__default_init_tagESA_EEOT_OT0_, symObjAddr: 0x2A70, symBinAddr: 0x1000035C8, symSize: 0x3C }
  - { offsetInCU: 0xB8B7, offset: 0xB8B7, size: 0x8, addend: 0x0, symName: __ZNSt3__117__compressed_pairINS_12basic_stringIcNS_11char_traitsIcEENS_9allocatorIcEEE5__repES5_EC2B8ne180100INS_18__default_init_tagESA_EEOT_OT0_, symObjAddr: 0x2AAC, symBinAddr: 0x100003604, symSize: 0x3C }
  - { offsetInCU: 0xB90E, offset: 0xB90E, size: 0x8, addend: 0x0, symName: __ZNSt3__122__compressed_pair_elemINS_12basic_stringIcNS_11char_traitsIcEENS_9allocatorIcEEE5__repELi0ELb0EEC2B8ne180100ENS_18__default_init_tagE, symObjAddr: 0x2AE8, symBinAddr: 0x100003640, symSize: 0x14 }
  - { offsetInCU: 0xB942, offset: 0xB942, size: 0x8, addend: 0x0, symName: __ZNSt3__122__compressed_pair_elemINS_9allocatorIcEELi1ELb1EEC2B8ne180100ENS_18__default_init_tagE, symObjAddr: 0x2AFC, symBinAddr: 0x100003654, symSize: 0x2C }
  - { offsetInCU: 0xB976, offset: 0xB976, size: 0x8, addend: 0x0, symName: __ZNSt3__19allocatorIcEC2B8ne180100Ev, symObjAddr: 0x2B28, symBinAddr: 0x100003680, symSize: 0x2C }
  - { offsetInCU: 0xB99F, offset: 0xB99F, size: 0x8, addend: 0x0, symName: __ZNSt3__116__non_trivial_ifILb1ENS_9allocatorIcEEEC2B8ne180100Ev, symObjAddr: 0x2B54, symBinAddr: 0x1000036AC, symSize: 0x14 }
  - { offsetInCU: 0xB9C8, offset: 0xB9C8, size: 0x8, addend: 0x0, symName: __ZNKSt3__112basic_stringIcNS_11char_traitsIcEENS_9allocatorIcEEE13__get_pointerB8ne180100Ev, symObjAddr: 0x2B7C, symBinAddr: 0x1000036D4, symSize: 0x54 }
  - { offsetInCU: 0xB9ED, offset: 0xB9ED, size: 0x8, addend: 0x0, symName: __ZNKSt3__112basic_stringIcNS_11char_traitsIcEENS_9allocatorIcEEE9__is_longB8ne180100Ev, symObjAddr: 0x2BD0, symBinAddr: 0x100003728, symSize: 0x94 }
  - { offsetInCU: 0xBA12, offset: 0xBA12, size: 0x8, addend: 0x0, symName: __ZNKSt3__112basic_stringIcNS_11char_traitsIcEENS_9allocatorIcEEE18__get_long_pointerB8ne180100Ev, symObjAddr: 0x2C64, symBinAddr: 0x1000037BC, symSize: 0x28 }
  - { offsetInCU: 0xBA37, offset: 0xBA37, size: 0x8, addend: 0x0, symName: __ZNKSt3__112basic_stringIcNS_11char_traitsIcEENS_9allocatorIcEEE19__get_short_pointerB8ne180100Ev, symObjAddr: 0x2C8C, symBinAddr: 0x1000037E4, symSize: 0x28 }
  - { offsetInCU: 0xBA5C, offset: 0xBA5C, size: 0x8, addend: 0x0, symName: __ZNKSt3__117__compressed_pairINS_12basic_stringIcNS_11char_traitsIcEENS_9allocatorIcEEE5__repES5_E5firstB8ne180100Ev, symObjAddr: 0x2CB4, symBinAddr: 0x10000380C, symSize: 0x24 }
  - { offsetInCU: 0xBA81, offset: 0xBA81, size: 0x8, addend: 0x0, symName: __ZNKSt3__122__compressed_pair_elemINS_12basic_stringIcNS_11char_traitsIcEENS_9allocatorIcEEE5__repELi0ELb0EE5__getB8ne180100Ev, symObjAddr: 0x2CD8, symBinAddr: 0x100003830, symSize: 0x14 }
  - { offsetInCU: 0xBAA6, offset: 0xBAA6, size: 0x8, addend: 0x0, symName: __ZNSt3__114pointer_traitsIPKcE10pointer_toB8ne180100ERS1_, symObjAddr: 0x2CEC, symBinAddr: 0x100003844, symSize: 0x14 }
  - { offsetInCU: 0xBAC9, offset: 0xBAC9, size: 0x8, addend: 0x0, symName: __ZNSt3__119ostreambuf_iteratorIcNS_11char_traitsIcEEEC2B8ne180100ERNS_13basic_ostreamIcS2_EE, symObjAddr: 0x2D00, symBinAddr: 0x100003858, symSize: 0x68 }
  - { offsetInCU: 0xBAFF, offset: 0xBAFF, size: 0x8, addend: 0x0, symName: __ZNKSt3__19basic_iosIcNS_11char_traitsIcEEE5rdbufB8ne180100Ev, symObjAddr: 0x2D68, symBinAddr: 0x1000038C0, symSize: 0x24 }
  - { offsetInCU: 0xBB26, offset: 0xBB26, size: 0x8, addend: 0x0, symName: __ZNKSt3__18ios_base5rdbufB8ne180100Ev, symObjAddr: 0x2D8C, symBinAddr: 0x1000038E4, symSize: 0x18 }
  - { offsetInCU: 0xBB4B, offset: 0xBB4B, size: 0x8, addend: 0x0, symName: __ZNSt3__111char_traitsIcE11eq_int_typeB8ne180100Eii, symObjAddr: 0x2DA4, symBinAddr: 0x1000038FC, symSize: 0x28 }
  - { offsetInCU: 0xBB7E, offset: 0xBB7E, size: 0x8, addend: 0x0, symName: __ZNSt3__111char_traitsIcE3eofB8ne180100Ev, symObjAddr: 0x2DCC, symBinAddr: 0x100003924, symSize: 0x8 }
  - { offsetInCU: 0xBB91, offset: 0xBB91, size: 0x8, addend: 0x0, symName: __ZNSt3__18ios_base8setstateB8ne180100Ej, symObjAddr: 0x2DD4, symBinAddr: 0x10000392C, symSize: 0x34 }
...
