---
triple:          'arm64-apple-darwin'
binary-path:     '/Volumes/Samsung/coding/Project_2024/CrackYourPlacement/CrackYourPlacement/cpp/output/map'
relocations:
  - { offsetInCU: 0x559C, offset: 0x559C, size: 0x8, addend: 0x0, symName: __ZNSt3__124__put_character_sequenceB8ne180100IcNS_11char_traitsIcEEEERNS_13basic_ostreamIT_T0_EES7_PKS4_m, symObjAddr: 0x2864, symBinAddr: 0x100003080, symSize: 0x1F4 }
  - { offsetInCU: 0x6F3A, offset: 0x6F3A, size: 0x8, addend: 0x0, symName: __ZNSt3__1neB8ne180100IPcEEbRKNS_11__wrap_iterIT_EES6_, symObjAddr: 0x308, symBinAddr: 0x100000B24, symSize: 0x34 }
  - { offsetInCU: 0x6F7D, offset: 0x6F7D, size: 0x8, addend: 0x0, symName: __ZNSt3__1neB8ne180100ERKNS_14__map_iteratorINS_15__tree_iteratorINS_12__value_typeIciEEPNS_11__tree_nodeIS3_PvEElEEEESB_, symObjAddr: 0x4D4, symBinAddr: 0x100000CF0, symSize: 0x30 }
  - { offsetInCU: 0x6FBA, offset: 0x6FBA, size: 0x8, addend: 0x0, symName: __ZNSt3__1lsB8ne180100INS_11char_traitsIcEEEERNS_13basic_ostreamIcT_EES6_c, symObjAddr: 0x52C, symBinAddr: 0x100000D48, symSize: 0x34 }
  - { offsetInCU: 0x7000, offset: 0x7000, size: 0x8, addend: 0x0, symName: __ZNSt3__14endlB8ne180100IcNS_11char_traitsIcEEEERNS_13basic_ostreamIT_T0_EES7_, symObjAddr: 0x58C, symBinAddr: 0x100000DA8, symSize: 0x58 }
  - { offsetInCU: 0x7073, offset: 0x7073, size: 0x8, addend: 0x0, symName: __ZNSt3__112__destroy_atB8ne180100INS_4pairIKciEELi0EEEvPT_, symObjAddr: 0xCF8, symBinAddr: 0x100001514, symSize: 0x10 }
  - { offsetInCU: 0x70AA, offset: 0x70AA, size: 0x8, addend: 0x0, symName: __ZNSt3__130__libcpp_is_constant_evaluatedB8ne180100Ev, symObjAddr: 0xD90, symBinAddr: 0x1000015AC, symSize: 0xC }
  - { offsetInCU: 0x70C7, offset: 0x70C7, size: 0x8, addend: 0x0, symName: __ZNSt3__119__libcpp_deallocateB8ne180100EPvmm, symObjAddr: 0xD9C, symBinAddr: 0x1000015B8, symSize: 0x30 }
  - { offsetInCU: 0x710F, offset: 0x710F, size: 0x8, addend: 0x0, symName: __ZNSt3__127__do_deallocate_handle_sizeB8ne180100IJEEEvPvmDpT_, symObjAddr: 0xDCC, symBinAddr: 0x1000015E8, symSize: 0x28 }
  - { offsetInCU: 0x714D, offset: 0x714D, size: 0x8, addend: 0x0, symName: __ZNSt3__124__libcpp_operator_deleteB8ne180100IJPvEEEvDpT_, symObjAddr: 0xDF4, symBinAddr: 0x100001610, symSize: 0x24 }
  - { offsetInCU: 0x7182, offset: 0x7182, size: 0x8, addend: 0x0, symName: __ZNSt3__118__constexpr_strlenB8ne180100EPKc, symObjAddr: 0x1014, symBinAddr: 0x100001830, symSize: 0x24 }
  - { offsetInCU: 0x71E1, offset: 0x71E1, size: 0x8, addend: 0x0, symName: __ZNSt3__1eqB8ne180100IPcEEbRKNS_11__wrap_iterIT_EES6_, symObjAddr: 0x1328, symBinAddr: 0x100001B44, symSize: 0x48 }
  - { offsetInCU: 0x7242, offset: 0x7242, size: 0x8, addend: 0x0, symName: __ZNSt3__117__libcpp_allocateB8ne180100Emm, symObjAddr: 0x1B44, symBinAddr: 0x100002360, symSize: 0x28 }
  - { offsetInCU: 0x727F, offset: 0x727F, size: 0x8, addend: 0x0, symName: __ZNSt3__121__libcpp_operator_newB8ne180100IJmEEEPvDpT_, symObjAddr: 0x1B84, symBinAddr: 0x1000023A0, symSize: 0x24 }
  - { offsetInCU: 0x72B8, offset: 0x72B8, size: 0x8, addend: 0x0, symName: __ZNSt3__127__tree_balance_after_insertB8ne180100IPNS_16__tree_node_baseIPvEEEEvT_S5_, symObjAddr: 0x1DB0, symBinAddr: 0x1000025CC, symSize: 0x340 }
  - { offsetInCU: 0x732C, offset: 0x732C, size: 0x8, addend: 0x0, symName: __ZNSt3__120__tree_is_left_childB8ne180100IPNS_16__tree_node_baseIPvEEEEbT_, symObjAddr: 0x2130, symBinAddr: 0x10000294C, symSize: 0x2C }
  - { offsetInCU: 0x7361, offset: 0x7361, size: 0x8, addend: 0x0, symName: __ZNSt3__118__tree_left_rotateB8ne180100IPNS_16__tree_node_baseIPvEEEEvT_, symObjAddr: 0x215C, symBinAddr: 0x100002978, symSize: 0xEC }
  - { offsetInCU: 0x73A0, offset: 0x73A0, size: 0x8, addend: 0x0, symName: __ZNSt3__119__tree_right_rotateB8ne180100IPNS_16__tree_node_baseIPvEEEEvT_, symObjAddr: 0x2248, symBinAddr: 0x100002A64, symSize: 0xCC }
  - { offsetInCU: 0x73E2, offset: 0x73E2, size: 0x8, addend: 0x0, symName: __ZNSt3__112__destroy_atB8ne180100IiLi0EEEvPT_, symObjAddr: 0x2580, symBinAddr: 0x100002D9C, symSize: 0x10 }
  - { offsetInCU: 0x7419, offset: 0x7419, size: 0x8, addend: 0x0, symName: __ZNSt3__112__destroy_atB8ne180100IKcLi0EEEvPT_, symObjAddr: 0x2590, symBinAddr: 0x100002DAC, symSize: 0x10 }
  - { offsetInCU: 0x7450, offset: 0x7450, size: 0x8, addend: 0x0, symName: __ZNSt3__1neB8ne180100ERKNS_15__tree_iteratorINS_12__value_typeIciEEPNS_11__tree_nodeIS2_PvEElEES9_, symObjAddr: 0x26B0, symBinAddr: 0x100002ECC, symSize: 0x34 }
  - { offsetInCU: 0x748D, offset: 0x748D, size: 0x8, addend: 0x0, symName: __ZNSt3__1eqB8ne180100ERKNS_15__tree_iteratorINS_12__value_typeIciEEPNS_11__tree_nodeIS2_PvEElEES9_, symObjAddr: 0x26E4, symBinAddr: 0x100002F00, symSize: 0x30 }
  - { offsetInCU: 0x74CA, offset: 0x74CA, size: 0x8, addend: 0x0, symName: __ZNSt3__116__tree_next_iterB8ne180100IPNS_15__tree_end_nodeIPNS_16__tree_node_baseIPvEEEES5_EET_T0_, symObjAddr: 0x274C, symBinAddr: 0x100002F68, symSize: 0x80 }
  - { offsetInCU: 0x7508, offset: 0x7508, size: 0x8, addend: 0x0, symName: __ZNSt3__110__tree_minB8ne180100IPNS_16__tree_node_baseIPvEEEET_S5_, symObjAddr: 0x27CC, symBinAddr: 0x100002FE8, symSize: 0x40 }
  - { offsetInCU: 0x7570, offset: 0x7570, size: 0x8, addend: 0x0, symName: __ZNSt3__116__pad_and_outputB8ne180100IcNS_11char_traitsIcEEEENS_19ostreambuf_iteratorIT_T0_EES6_PKS4_S8_S8_RNS_8ios_baseES4_, symObjAddr: 0x2A74, symBinAddr: 0x100003290, symSize: 0x248 }
  - { offsetInCU: 0x763F, offset: 0x763F, size: 0x8, addend: 0x0, symName: __ZNSt3__112__to_addressB8ne180100IKcEEPT_S3_, symObjAddr: 0x2EEC, symBinAddr: 0x100003708, symSize: 0x14 }
  - { offsetInCU: 0x76A7, offset: 0x76A7, size: 0x8, addend: 0x0, symName: __ZNSt3__19use_facetB8ne180100INS_5ctypeIcEEEERKT_RKNS_6localeE, symObjAddr: 0x3118, symBinAddr: 0x100003934, symSize: 0x2C }
  - { offsetInCU: 0x7B75, offset: 0x7B75, size: 0x8, addend: 0x0, symName: __ZSt28__throw_bad_array_new_lengthB8ne180100v, symObjAddr: 0x1B10, symBinAddr: 0x10000232C, symSize: 0x34 }
  - { offsetInCU: 0x89FD, offset: 0x89FD, size: 0x8, addend: 0x0, symName: __Z7isalphai, symObjAddr: 0x354, symBinAddr: 0x100000B70, symSize: 0x28 }
  - { offsetInCU: 0xA4DD, offset: 0xA4DD, size: 0x8, addend: 0x0, symName: _main, symObjAddr: 0x0, symBinAddr: 0x10000081C, symSize: 0x1F4 }
  - { offsetInCU: 0xA5A7, offset: 0xA5A7, size: 0x8, addend: 0x0, symName: __ZNSt3__13mapIciNS_4lessIcEENS_9allocatorINS_4pairIKciEEEEEC1B8ne180100Ev, symObjAddr: 0x1F4, symBinAddr: 0x100000A10, symSize: 0x2C }
  - { offsetInCU: 0xA5D6, offset: 0xA5D6, size: 0x8, addend: 0x0, symName: __ZNSt3__112basic_stringIcNS_11char_traitsIcEENS_9allocatorIcEEEC1B8ne180100ILi0EEEPKc, symObjAddr: 0x220, symBinAddr: 0x100000A3C, symSize: 0x34 }
  - { offsetInCU: 0xA615, offset: 0xA615, size: 0x8, addend: 0x0, symName: __ZNSt3__112basic_stringIcNS_11char_traitsIcEENS_9allocatorIcEEE5beginB8ne180100Ev, symObjAddr: 0x254, symBinAddr: 0x100000A70, symSize: 0x60 }
  - { offsetInCU: 0xA63B, offset: 0xA63B, size: 0x8, addend: 0x0, symName: __ZNSt3__112basic_stringIcNS_11char_traitsIcEENS_9allocatorIcEEE3endB8ne180100Ev, symObjAddr: 0x2B4, symBinAddr: 0x100000AD0, symSize: 0x54 }
  - { offsetInCU: 0xA661, offset: 0xA661, size: 0x8, addend: 0x0, symName: __ZNKSt3__111__wrap_iterIPcEdeB8ne180100Ev, symObjAddr: 0x33C, symBinAddr: 0x100000B58, symSize: 0x18 }
  - { offsetInCU: 0xA687, offset: 0xA687, size: 0x8, addend: 0x0, symName: __ZNSt3__13mapIciNS_4lessIcEENS_9allocatorINS_4pairIKciEEEEEixERS5_, symObjAddr: 0x37C, symBinAddr: 0x100000B98, symSize: 0xC8 }
  - { offsetInCU: 0xA700, offset: 0xA700, size: 0x8, addend: 0x0, symName: __ZNSt3__111__wrap_iterIPcEppB8ne180100Ev, symObjAddr: 0x444, symBinAddr: 0x100000C60, symSize: 0x20 }
  - { offsetInCU: 0xA726, offset: 0xA726, size: 0x8, addend: 0x0, symName: __ZNSt3__13mapIciNS_4lessIcEENS_9allocatorINS_4pairIKciEEEEE5beginB8ne180100Ev, symObjAddr: 0x464, symBinAddr: 0x100000C80, symSize: 0x38 }
  - { offsetInCU: 0xA74C, offset: 0xA74C, size: 0x8, addend: 0x0, symName: __ZNSt3__13mapIciNS_4lessIcEENS_9allocatorINS_4pairIKciEEEEE3endB8ne180100Ev, symObjAddr: 0x49C, symBinAddr: 0x100000CB8, symSize: 0x38 }
  - { offsetInCU: 0xA772, offset: 0xA772, size: 0x8, addend: 0x0, symName: __ZNKSt3__114__map_iteratorINS_15__tree_iteratorINS_12__value_typeIciEEPNS_11__tree_nodeIS3_PvEElEEEdeB8ne180100Ev, symObjAddr: 0x504, symBinAddr: 0x100000D20, symSize: 0x28 }
  - { offsetInCU: 0xA798, offset: 0xA798, size: 0x8, addend: 0x0, symName: __ZNSt3__113basic_ostreamIcNS_11char_traitsIcEEElsB8ne180100EPFRS3_S4_E, symObjAddr: 0x560, symBinAddr: 0x100000D7C, symSize: 0x2C }
  - { offsetInCU: 0xA7CC, offset: 0xA7CC, size: 0x8, addend: 0x0, symName: __ZNSt3__114__map_iteratorINS_15__tree_iteratorINS_12__value_typeIciEEPNS_11__tree_nodeIS3_PvEElEEEppB8ne180100Ev, symObjAddr: 0x5E4, symBinAddr: 0x100000E00, symSize: 0x2C }
  - { offsetInCU: 0xA7F2, offset: 0xA7F2, size: 0x8, addend: 0x0, symName: __ZNSt3__13mapIciNS_4lessIcEENS_9allocatorINS_4pairIKciEEEEED1B8ne180100Ev, symObjAddr: 0x61C, symBinAddr: 0x100000E38, symSize: 0x2C }
  - { offsetInCU: 0xA81B, offset: 0xA81B, size: 0x8, addend: 0x0, symName: __Z8__istypeim, symObjAddr: 0x648, symBinAddr: 0x100000E64, symSize: 0x8C }
  - { offsetInCU: 0xA855, offset: 0xA855, size: 0x8, addend: 0x0, symName: __Z7isasciii, symObjAddr: 0x6D4, symBinAddr: 0x100000EF0, symSize: 0x24 }
  - { offsetInCU: 0xA882, offset: 0xA882, size: 0x8, addend: 0x0, symName: __ZNSt3__13mapIciNS_4lessIcEENS_9allocatorINS_4pairIKciEEEEEC2B8ne180100Ev, symObjAddr: 0x6F8, symBinAddr: 0x100000F14, symSize: 0x40 }
  - { offsetInCU: 0xA8AC, offset: 0xA8AC, size: 0x8, addend: 0x0, symName: __ZNSt3__119__map_value_compareIcNS_12__value_typeIciEENS_4lessIcEELb1EEC1B8ne180100ES4_, symObjAddr: 0x738, symBinAddr: 0x100000F54, symSize: 0x2C }
  - { offsetInCU: 0xA8E5, offset: 0xA8E5, size: 0x8, addend: 0x0, symName: __ZNSt3__16__treeINS_12__value_typeIciEENS_19__map_value_compareIcS2_NS_4lessIcEELb1EEENS_9allocatorIS2_EEEC1ERKS6_, symObjAddr: 0x764, symBinAddr: 0x100000F80, symSize: 0x34 }
  - { offsetInCU: 0xA920, offset: 0xA920, size: 0x8, addend: 0x0, symName: __ZNSt3__119__map_value_compareIcNS_12__value_typeIciEENS_4lessIcEELb1EEC2B8ne180100ES4_, symObjAddr: 0x798, symBinAddr: 0x100000FB4, symSize: 0x14 }
  - { offsetInCU: 0xA959, offset: 0xA959, size: 0x8, addend: 0x0, symName: __ZNSt3__16__treeINS_12__value_typeIciEENS_19__map_value_compareIcS2_NS_4lessIcEELb1EEENS_9allocatorIS2_EEEC2ERKS6_, symObjAddr: 0x7AC, symBinAddr: 0x100000FC8, symSize: 0x70 }
  - { offsetInCU: 0xA994, offset: 0xA994, size: 0x8, addend: 0x0, symName: __ZNSt3__117__compressed_pairINS_15__tree_end_nodeIPNS_16__tree_node_baseIPvEEEENS_9allocatorINS_11__tree_nodeINS_12__value_typeIciEES3_EEEEEC1B8ne180100ILb1EvEEv, symObjAddr: 0x81C, symBinAddr: 0x100001038, symSize: 0x2C }
  - { offsetInCU: 0xA9CE, offset: 0xA9CE, size: 0x8, addend: 0x0, symName: __ZNSt3__117__compressed_pairImNS_19__map_value_compareIcNS_12__value_typeIciEENS_4lessIcEELb1EEEEC1B8ne180100IiRKS6_EEOT_OT0_, symObjAddr: 0x848, symBinAddr: 0x100001064, symSize: 0x3C }
  - { offsetInCU: 0xAA26, offset: 0xAA26, size: 0x8, addend: 0x0, symName: __ZNSt3__16__treeINS_12__value_typeIciEENS_19__map_value_compareIcS2_NS_4lessIcEELb1EEENS_9allocatorIS2_EEE10__end_nodeB8ne180100Ev, symObjAddr: 0x884, symBinAddr: 0x1000010A0, symSize: 0x2C }
  - { offsetInCU: 0xAA4C, offset: 0xAA4C, size: 0x8, addend: 0x0, symName: __ZNSt3__16__treeINS_12__value_typeIciEENS_19__map_value_compareIcS2_NS_4lessIcEELb1EEENS_9allocatorIS2_EEE12__begin_nodeB8ne180100Ev, symObjAddr: 0x8B0, symBinAddr: 0x1000010CC, symSize: 0x14 }
  - { offsetInCU: 0xAA72, offset: 0xAA72, size: 0x8, addend: 0x0, symName: __ZNSt3__117__compressed_pairINS_15__tree_end_nodeIPNS_16__tree_node_baseIPvEEEENS_9allocatorINS_11__tree_nodeINS_12__value_typeIciEES3_EEEEEC2B8ne180100ILb1EvEEv, symObjAddr: 0x8C4, symBinAddr: 0x1000010E0, symSize: 0x34 }
  - { offsetInCU: 0xAAA7, offset: 0xAAA7, size: 0x8, addend: 0x0, symName: __ZNSt3__122__compressed_pair_elemINS_15__tree_end_nodeIPNS_16__tree_node_baseIPvEEEELi0ELb0EEC2B8ne180100ENS_16__value_init_tagE, symObjAddr: 0x8F8, symBinAddr: 0x100001114, symSize: 0x2C }
  - { offsetInCU: 0xAADC, offset: 0xAADC, size: 0x8, addend: 0x0, symName: __ZNSt3__122__compressed_pair_elemINS_9allocatorINS_11__tree_nodeINS_12__value_typeIciEEPvEEEELi1ELb1EEC2B8ne180100ENS_16__value_init_tagE, symObjAddr: 0x924, symBinAddr: 0x100001140, symSize: 0x2C }
  - { offsetInCU: 0xAB11, offset: 0xAB11, size: 0x8, addend: 0x0, symName: __ZNSt3__115__tree_end_nodeIPNS_16__tree_node_baseIPvEEEC1B8ne180100Ev, symObjAddr: 0x950, symBinAddr: 0x10000116C, symSize: 0x2C }
  - { offsetInCU: 0xAB3B, offset: 0xAB3B, size: 0x8, addend: 0x0, symName: __ZNSt3__115__tree_end_nodeIPNS_16__tree_node_baseIPvEEEC2B8ne180100Ev, symObjAddr: 0x97C, symBinAddr: 0x100001198, symSize: 0x18 }
  - { offsetInCU: 0xAB65, offset: 0xAB65, size: 0x8, addend: 0x0, symName: __ZNSt3__19allocatorINS_11__tree_nodeINS_12__value_typeIciEEPvEEEC2B8ne180100Ev, symObjAddr: 0x994, symBinAddr: 0x1000011B0, symSize: 0x2C }
  - { offsetInCU: 0xAB8F, offset: 0xAB8F, size: 0x8, addend: 0x0, symName: __ZNSt3__116__non_trivial_ifILb1ENS_9allocatorINS_11__tree_nodeINS_12__value_typeIciEEPvEEEEEC2B8ne180100Ev, symObjAddr: 0x9C0, symBinAddr: 0x1000011DC, symSize: 0x14 }
  - { offsetInCU: 0xABB9, offset: 0xABB9, size: 0x8, addend: 0x0, symName: __ZNSt3__117__compressed_pairImNS_19__map_value_compareIcNS_12__value_typeIciEENS_4lessIcEELb1EEEEC2B8ne180100IiRKS6_EEOT_OT0_, symObjAddr: 0x9D4, symBinAddr: 0x1000011F0, symSize: 0x44 }
  - { offsetInCU: 0xAC11, offset: 0xAC11, size: 0x8, addend: 0x0, symName: __ZNSt3__122__compressed_pair_elemImLi0ELb0EEC2B8ne180100IivEEOT_, symObjAddr: 0xA18, symBinAddr: 0x100001234, symSize: 0x24 }
  - { offsetInCU: 0xAC53, offset: 0xAC53, size: 0x8, addend: 0x0, symName: __ZNSt3__122__compressed_pair_elemINS_19__map_value_compareIcNS_12__value_typeIciEENS_4lessIcEELb1EEELi1ELb1EEC2B8ne180100IRKS6_vEEOT_, symObjAddr: 0xA3C, symBinAddr: 0x100001258, symSize: 0x18 }
  - { offsetInCU: 0xAC95, offset: 0xAC95, size: 0x8, addend: 0x0, symName: __ZNSt3__114pointer_traitsIPNS_15__tree_end_nodeIPNS_16__tree_node_baseIPvEEEEE10pointer_toB8ne180100ERS6_, symObjAddr: 0xA54, symBinAddr: 0x100001270, symSize: 0x14 }
  - { offsetInCU: 0xACB8, offset: 0xACB8, size: 0x8, addend: 0x0, symName: __ZNSt3__117__compressed_pairINS_15__tree_end_nodeIPNS_16__tree_node_baseIPvEEEENS_9allocatorINS_11__tree_nodeINS_12__value_typeIciEES3_EEEEE5firstB8ne180100Ev, symObjAddr: 0xA68, symBinAddr: 0x100001284, symSize: 0x24 }
  - { offsetInCU: 0xACDE, offset: 0xACDE, size: 0x8, addend: 0x0, symName: __ZNSt3__122__compressed_pair_elemINS_15__tree_end_nodeIPNS_16__tree_node_baseIPvEEEELi0ELb0EE5__getB8ne180100Ev, symObjAddr: 0xA8C, symBinAddr: 0x1000012A8, symSize: 0x14 }
  - { offsetInCU: 0xAD04, offset: 0xAD04, size: 0x8, addend: 0x0, symName: __ZNSt3__13mapIciNS_4lessIcEENS_9allocatorINS_4pairIKciEEEEED2B8ne180100Ev, symObjAddr: 0xAA0, symBinAddr: 0x1000012BC, symSize: 0x2C }
  - { offsetInCU: 0xAD2E, offset: 0xAD2E, size: 0x8, addend: 0x0, symName: __ZNSt3__16__treeINS_12__value_typeIciEENS_19__map_value_compareIcS2_NS_4lessIcEELb1EEENS_9allocatorIS2_EEED1Ev, symObjAddr: 0xACC, symBinAddr: 0x1000012E8, symSize: 0x2C }
  - { offsetInCU: 0xAD5A, offset: 0xAD5A, size: 0x8, addend: 0x0, symName: __ZNSt3__16__treeINS_12__value_typeIciEENS_19__map_value_compareIcS2_NS_4lessIcEELb1EEENS_9allocatorIS2_EEED2Ev, symObjAddr: 0xAF8, symBinAddr: 0x100001314, symSize: 0x38 }
  - { offsetInCU: 0xAD86, offset: 0xAD86, size: 0x8, addend: 0x0, symName: __ZNSt3__16__treeINS_12__value_typeIciEENS_19__map_value_compareIcS2_NS_4lessIcEELb1EEENS_9allocatorIS2_EEE7destroyEPNS_11__tree_nodeIS2_PvEE, symObjAddr: 0xB30, symBinAddr: 0x10000134C, symSize: 0xC0 }
  - { offsetInCU: 0xADDA, offset: 0xADDA, size: 0x8, addend: 0x0, symName: __ZNKSt3__16__treeINS_12__value_typeIciEENS_19__map_value_compareIcS2_NS_4lessIcEELb1EEENS_9allocatorIS2_EEE6__rootB8ne180100Ev, symObjAddr: 0xBF0, symBinAddr: 0x10000140C, symSize: 0x28 }
  - { offsetInCU: 0xAE00, offset: 0xAE00, size: 0x8, addend: 0x0, symName: __ZNSt3__16__treeINS_12__value_typeIciEENS_19__map_value_compareIcS2_NS_4lessIcEELb1EEENS_9allocatorIS2_EEE12__node_allocB8ne180100Ev, symObjAddr: 0xC18, symBinAddr: 0x100001434, symSize: 0x28 }
  - { offsetInCU: 0xAE26, offset: 0xAE26, size: 0x8, addend: 0x0, symName: __ZNSt3__116allocator_traitsINS_9allocatorINS_11__tree_nodeINS_12__value_typeIciEEPvEEEEE7destroyB8ne180100INS_4pairIKciEEvvEEvRS7_PT_, symObjAddr: 0xC40, symBinAddr: 0x10000145C, symSize: 0x28 }
  - { offsetInCU: 0xAE61, offset: 0xAE61, size: 0x8, addend: 0x0, symName: __ZNSt3__122__tree_key_value_typesINS_12__value_typeIciEEE9__get_ptrB8ne180100ERS2_, symObjAddr: 0xC68, symBinAddr: 0x100001484, symSize: 0x24 }
  - { offsetInCU: 0xAE85, offset: 0xAE85, size: 0x8, addend: 0x0, symName: __ZNSt3__116allocator_traitsINS_9allocatorINS_11__tree_nodeINS_12__value_typeIciEEPvEEEEE10deallocateB8ne180100ERS7_PS6_m, symObjAddr: 0xC8C, symBinAddr: 0x1000014A8, symSize: 0x34 }
  - { offsetInCU: 0xAEC7, offset: 0xAEC7, size: 0x8, addend: 0x0, symName: __ZNSt3__117__compressed_pairINS_15__tree_end_nodeIPNS_16__tree_node_baseIPvEEEENS_9allocatorINS_11__tree_nodeINS_12__value_typeIciEES3_EEEEE6secondB8ne180100Ev, symObjAddr: 0xCC0, symBinAddr: 0x1000014DC, symSize: 0x24 }
  - { offsetInCU: 0xAEED, offset: 0xAEED, size: 0x8, addend: 0x0, symName: __ZNSt3__122__compressed_pair_elemINS_9allocatorINS_11__tree_nodeINS_12__value_typeIciEEPvEEEELi1ELb1EE5__getB8ne180100Ev, symObjAddr: 0xCE4, symBinAddr: 0x100001500, symSize: 0x14 }
  - { offsetInCU: 0xAF13, offset: 0xAF13, size: 0x8, addend: 0x0, symName: __ZNSt3__112__value_typeIciE11__get_valueB8ne180100Ev, symObjAddr: 0xD08, symBinAddr: 0x100001524, symSize: 0x14 }
  - { offsetInCU: 0xAF39, offset: 0xAF39, size: 0x8, addend: 0x0, symName: __ZNSt3__19allocatorINS_11__tree_nodeINS_12__value_typeIciEEPvEEE10deallocateB8ne180100EPS5_m, symObjAddr: 0xD1C, symBinAddr: 0x100001538, symSize: 0x74 }
  - { offsetInCU: 0xAF7B, offset: 0xAF7B, size: 0x8, addend: 0x0, symName: __ZNKSt3__16__treeINS_12__value_typeIciEENS_19__map_value_compareIcS2_NS_4lessIcEELb1EEENS_9allocatorIS2_EEE10__end_nodeB8ne180100Ev, symObjAddr: 0xE18, symBinAddr: 0x100001634, symSize: 0x2C }
  - { offsetInCU: 0xAFA1, offset: 0xAFA1, size: 0x8, addend: 0x0, symName: __ZNKSt3__117__compressed_pairINS_15__tree_end_nodeIPNS_16__tree_node_baseIPvEEEENS_9allocatorINS_11__tree_nodeINS_12__value_typeIciEES3_EEEEE5firstB8ne180100Ev, symObjAddr: 0xE44, symBinAddr: 0x100001660, symSize: 0x24 }
  - { offsetInCU: 0xAFC7, offset: 0xAFC7, size: 0x8, addend: 0x0, symName: __ZNKSt3__122__compressed_pair_elemINS_15__tree_end_nodeIPNS_16__tree_node_baseIPvEEEELi0ELb0EE5__getB8ne180100Ev, symObjAddr: 0xE68, symBinAddr: 0x100001684, symSize: 0x14 }
  - { offsetInCU: 0xAFED, offset: 0xAFED, size: 0x8, addend: 0x0, symName: __ZNSt3__112basic_stringIcNS_11char_traitsIcEENS_9allocatorIcEEEC2B8ne180100ILi0EEEPKc, symObjAddr: 0xE7C, symBinAddr: 0x100001698, symSize: 0x58 }
  - { offsetInCU: 0xB031, offset: 0xB031, size: 0x8, addend: 0x0, symName: __ZNSt3__117__compressed_pairINS_12basic_stringIcNS_11char_traitsIcEENS_9allocatorIcEEE5__repES5_EC1B8ne180100INS_18__default_init_tagESA_EEOT_OT0_, symObjAddr: 0xED4, symBinAddr: 0x1000016F0, symSize: 0x3C }
  - { offsetInCU: 0xB089, offset: 0xB089, size: 0x8, addend: 0x0, symName: __ZNSt3__111char_traitsIcE6lengthB8ne180100EPKc, symObjAddr: 0xF10, symBinAddr: 0x10000172C, symSize: 0x48 }
  - { offsetInCU: 0xB0AC, offset: 0xB0AC, size: 0x8, addend: 0x0, symName: __ZNSt3__117__compressed_pairINS_12basic_stringIcNS_11char_traitsIcEENS_9allocatorIcEEE5__repES5_EC2B8ne180100INS_18__default_init_tagESA_EEOT_OT0_, symObjAddr: 0xF58, symBinAddr: 0x100001774, symSize: 0x3C }
  - { offsetInCU: 0xB104, offset: 0xB104, size: 0x8, addend: 0x0, symName: __ZNSt3__122__compressed_pair_elemINS_12basic_stringIcNS_11char_traitsIcEENS_9allocatorIcEEE5__repELi0ELb0EEC2B8ne180100ENS_18__default_init_tagE, symObjAddr: 0xF94, symBinAddr: 0x1000017B0, symSize: 0x14 }
  - { offsetInCU: 0xB139, offset: 0xB139, size: 0x8, addend: 0x0, symName: __ZNSt3__122__compressed_pair_elemINS_9allocatorIcEELi1ELb1EEC2B8ne180100ENS_18__default_init_tagE, symObjAddr: 0xFA8, symBinAddr: 0x1000017C4, symSize: 0x2C }
  - { offsetInCU: 0xB16E, offset: 0xB16E, size: 0x8, addend: 0x0, symName: __ZNSt3__19allocatorIcEC2B8ne180100Ev, symObjAddr: 0xFD4, symBinAddr: 0x1000017F0, symSize: 0x2C }
  - { offsetInCU: 0xB198, offset: 0xB198, size: 0x8, addend: 0x0, symName: __ZNSt3__116__non_trivial_ifILb1ENS_9allocatorIcEEEC2B8ne180100Ev, symObjAddr: 0x1000, symBinAddr: 0x10000181C, symSize: 0x14 }
  - { offsetInCU: 0xB1C2, offset: 0xB1C2, size: 0x8, addend: 0x0, symName: __ZNSt3__112basic_stringIcNS_11char_traitsIcEENS_9allocatorIcEEE15__make_iteratorB8ne180100EPc, symObjAddr: 0x1038, symBinAddr: 0x100001854, symSize: 0x30 }
  - { offsetInCU: 0xB1F7, offset: 0xB1F7, size: 0x8, addend: 0x0, symName: __ZNSt3__112basic_stringIcNS_11char_traitsIcEENS_9allocatorIcEEE13__get_pointerB8ne180100Ev, symObjAddr: 0x1068, symBinAddr: 0x100001884, symSize: 0x54 }
  - { offsetInCU: 0xB21D, offset: 0xB21D, size: 0x8, addend: 0x0, symName: __ZNSt3__111__wrap_iterIPcEC1B8ne180100ES1_, symObjAddr: 0x10BC, symBinAddr: 0x1000018D8, symSize: 0x34 }
  - { offsetInCU: 0xB255, offset: 0xB255, size: 0x8, addend: 0x0, symName: __ZNSt3__111__wrap_iterIPcEC2B8ne180100ES1_, symObjAddr: 0x10F0, symBinAddr: 0x10000190C, symSize: 0x20 }
  - { offsetInCU: 0xB28D, offset: 0xB28D, size: 0x8, addend: 0x0, symName: __ZNKSt3__112basic_stringIcNS_11char_traitsIcEENS_9allocatorIcEEE9__is_longB8ne180100Ev, symObjAddr: 0x1110, symBinAddr: 0x10000192C, symSize: 0x94 }
  - { offsetInCU: 0xB2B3, offset: 0xB2B3, size: 0x8, addend: 0x0, symName: __ZNSt3__112basic_stringIcNS_11char_traitsIcEENS_9allocatorIcEEE18__get_long_pointerB8ne180100Ev, symObjAddr: 0x11A4, symBinAddr: 0x1000019C0, symSize: 0x28 }
  - { offsetInCU: 0xB2D9, offset: 0xB2D9, size: 0x8, addend: 0x0, symName: __ZNSt3__112basic_stringIcNS_11char_traitsIcEENS_9allocatorIcEEE19__get_short_pointerB8ne180100Ev, symObjAddr: 0x11CC, symBinAddr: 0x1000019E8, symSize: 0x28 }
  - { offsetInCU: 0xB2FF, offset: 0xB2FF, size: 0x8, addend: 0x0, symName: __ZNKSt3__117__compressed_pairINS_12basic_stringIcNS_11char_traitsIcEENS_9allocatorIcEEE5__repES5_E5firstB8ne180100Ev, symObjAddr: 0x11F4, symBinAddr: 0x100001A10, symSize: 0x24 }
  - { offsetInCU: 0xB325, offset: 0xB325, size: 0x8, addend: 0x0, symName: __ZNKSt3__122__compressed_pair_elemINS_12basic_stringIcNS_11char_traitsIcEENS_9allocatorIcEEE5__repELi0ELb0EE5__getB8ne180100Ev, symObjAddr: 0x1218, symBinAddr: 0x100001A34, symSize: 0x14 }
  - { offsetInCU: 0xB34B, offset: 0xB34B, size: 0x8, addend: 0x0, symName: __ZNSt3__117__compressed_pairINS_12basic_stringIcNS_11char_traitsIcEENS_9allocatorIcEEE5__repES5_E5firstB8ne180100Ev, symObjAddr: 0x122C, symBinAddr: 0x100001A48, symSize: 0x24 }
  - { offsetInCU: 0xB371, offset: 0xB371, size: 0x8, addend: 0x0, symName: __ZNSt3__122__compressed_pair_elemINS_12basic_stringIcNS_11char_traitsIcEENS_9allocatorIcEEE5__repELi0ELb0EE5__getB8ne180100Ev, symObjAddr: 0x1250, symBinAddr: 0x100001A6C, symSize: 0x14 }
  - { offsetInCU: 0xB397, offset: 0xB397, size: 0x8, addend: 0x0, symName: __ZNSt3__114pointer_traitsIPcE10pointer_toB8ne180100ERc, symObjAddr: 0x1264, symBinAddr: 0x100001A80, symSize: 0x14 }
  - { offsetInCU: 0xB3BA, offset: 0xB3BA, size: 0x8, addend: 0x0, symName: __ZNKSt3__112basic_stringIcNS_11char_traitsIcEENS_9allocatorIcEEE4sizeB8ne180100Ev, symObjAddr: 0x1278, symBinAddr: 0x100001A94, symSize: 0x54 }
  - { offsetInCU: 0xB3E0, offset: 0xB3E0, size: 0x8, addend: 0x0, symName: __ZNKSt3__112basic_stringIcNS_11char_traitsIcEENS_9allocatorIcEEE15__get_long_sizeB8ne180100Ev, symObjAddr: 0x12CC, symBinAddr: 0x100001AE8, symSize: 0x28 }
  - { offsetInCU: 0xB406, offset: 0xB406, size: 0x8, addend: 0x0, symName: __ZNKSt3__112basic_stringIcNS_11char_traitsIcEENS_9allocatorIcEEE16__get_short_sizeB8ne180100Ev, symObjAddr: 0x12F4, symBinAddr: 0x100001B10, symSize: 0x34 }
  - { offsetInCU: 0xB42C, offset: 0xB42C, size: 0x8, addend: 0x0, symName: __ZNKSt3__111__wrap_iterIPcE4baseB8ne180100Ev, symObjAddr: 0x1370, symBinAddr: 0x100001B8C, symSize: 0x18 }
  - { offsetInCU: 0xB452, offset: 0xB452, size: 0x8, addend: 0x0, symName: __ZNSt3__16__treeINS_12__value_typeIciEENS_19__map_value_compareIcS2_NS_4lessIcEELb1EEENS_9allocatorIS2_EEE12__find_equalIcEERPNS_16__tree_node_baseIPvEERPNS_15__tree_end_nodeISE_EERKT_, symObjAddr: 0x1388, symBinAddr: 0x100001BA4, symSize: 0x184 }
  - { offsetInCU: 0xB4BF, offset: 0xB4BF, size: 0x8, addend: 0x0, symName: __ZNSt3__13mapIciNS_4lessIcEENS_9allocatorINS_4pairIKciEEEEE25__construct_node_with_keyERS5_, symObjAddr: 0x150C, symBinAddr: 0x100001D28, symSize: 0x144 }
  - { offsetInCU: 0xB515, offset: 0xB515, size: 0x8, addend: 0x0, symName: __ZNSt3__16__treeINS_12__value_typeIciEENS_19__map_value_compareIcS2_NS_4lessIcEELb1EEENS_9allocatorIS2_EEE16__insert_node_atEPNS_15__tree_end_nodeIPNS_16__tree_node_baseIPvEEEERSE_SE_, symObjAddr: 0x1650, symBinAddr: 0x100001E6C, symSize: 0xCC }
  - { offsetInCU: 0xB56A, offset: 0xB56A, size: 0x8, addend: 0x0, symName: __ZNKSt3__110unique_ptrINS_11__tree_nodeINS_12__value_typeIciEEPvEENS_21__map_node_destructorINS_9allocatorIS5_EEEEE3getB8ne180100Ev, symObjAddr: 0x171C, symBinAddr: 0x100001F38, symSize: 0x28 }
  - { offsetInCU: 0xB590, offset: 0xB590, size: 0x8, addend: 0x0, symName: __ZNSt3__110unique_ptrINS_11__tree_nodeINS_12__value_typeIciEEPvEENS_21__map_node_destructorINS_9allocatorIS5_EEEEE7releaseB8ne180100Ev, symObjAddr: 0x1744, symBinAddr: 0x100001F60, symSize: 0x44 }
  - { offsetInCU: 0xB5C5, offset: 0xB5C5, size: 0x8, addend: 0x0, symName: __ZNSt3__110unique_ptrINS_11__tree_nodeINS_12__value_typeIciEEPvEENS_21__map_node_destructorINS_9allocatorIS5_EEEEED1B8ne180100Ev, symObjAddr: 0x1788, symBinAddr: 0x100001FA4, symSize: 0x2C }
  - { offsetInCU: 0xB5EF, offset: 0xB5EF, size: 0x8, addend: 0x0, symName: __ZNKSt3__16__treeINS_12__value_typeIciEENS_19__map_value_compareIcS2_NS_4lessIcEELb1EEENS_9allocatorIS2_EEE10__root_ptrB8ne180100Ev, symObjAddr: 0x17B4, symBinAddr: 0x100001FD0, symSize: 0x24 }
  - { offsetInCU: 0xB615, offset: 0xB615, size: 0x8, addend: 0x0, symName: __ZNSt3__16__treeINS_12__value_typeIciEENS_19__map_value_compareIcS2_NS_4lessIcEELb1EEENS_9allocatorIS2_EEE10value_compB8ne180100Ev, symObjAddr: 0x17D8, symBinAddr: 0x100001FF4, symSize: 0x28 }
  - { offsetInCU: 0xB63B, offset: 0xB63B, size: 0x8, addend: 0x0, symName: __ZNKSt3__119__map_value_compareIcNS_12__value_typeIciEENS_4lessIcEELb1EEclB8ne180100ERKcRKS2_, symObjAddr: 0x1800, symBinAddr: 0x10000201C, symSize: 0x50 }
  - { offsetInCU: 0xB67F, offset: 0xB67F, size: 0x8, addend: 0x0, symName: __ZNKSt3__119__map_value_compareIcNS_12__value_typeIciEENS_4lessIcEELb1EEclB8ne180100ERKS2_RKc, symObjAddr: 0x1850, symBinAddr: 0x10000206C, symSize: 0x48 }
  - { offsetInCU: 0xB6C3, offset: 0xB6C3, size: 0x8, addend: 0x0, symName: __ZNSt3__117__compressed_pairImNS_19__map_value_compareIcNS_12__value_typeIciEENS_4lessIcEELb1EEEE6secondB8ne180100Ev, symObjAddr: 0x1898, symBinAddr: 0x1000020B4, symSize: 0x24 }
  - { offsetInCU: 0xB6E9, offset: 0xB6E9, size: 0x8, addend: 0x0, symName: __ZNSt3__122__compressed_pair_elemINS_19__map_value_compareIcNS_12__value_typeIciEENS_4lessIcEELb1EEELi1ELb1EE5__getB8ne180100Ev, symObjAddr: 0x18BC, symBinAddr: 0x1000020D8, symSize: 0x14 }
  - { offsetInCU: 0xB70F, offset: 0xB70F, size: 0x8, addend: 0x0, symName: __ZNKSt3__14lessIcEclB8ne180100ERKcS3_, symObjAddr: 0x18D0, symBinAddr: 0x1000020EC, symSize: 0x34 }
  - { offsetInCU: 0xB753, offset: 0xB753, size: 0x8, addend: 0x0, symName: __ZNKSt3__112__value_typeIciE11__get_valueB8ne180100Ev, symObjAddr: 0x1904, symBinAddr: 0x100002120, symSize: 0x14 }
  - { offsetInCU: 0xB779, offset: 0xB779, size: 0x8, addend: 0x0, symName: __ZNSt3__116allocator_traitsINS_9allocatorINS_11__tree_nodeINS_12__value_typeIciEEPvEEEEE8allocateB8ne180100ERS7_m, symObjAddr: 0x1918, symBinAddr: 0x100002134, symSize: 0x2C }
  - { offsetInCU: 0xB7AC, offset: 0xB7AC, size: 0x8, addend: 0x0, symName: __ZNSt3__121__map_node_destructorINS_9allocatorINS_11__tree_nodeINS_12__value_typeIciEEPvEEEEEC1B8ne180100ERS7_, symObjAddr: 0x1944, symBinAddr: 0x100002160, symSize: 0x34 }
  - { offsetInCU: 0xB7EA, offset: 0xB7EA, size: 0x8, addend: 0x0, symName: __ZNSt3__110unique_ptrINS_11__tree_nodeINS_12__value_typeIciEEPvEENS_21__map_node_destructorINS_9allocatorIS5_EEEEEC1B8ne180100ILb1EvEEPS5_NS_16__dependent_typeINS_27__unique_ptr_deleter_sfinaeIS9_EEXT_EE20__good_rval_ref_typeE, symObjAddr: 0x1978, symBinAddr: 0x100002194, symSize: 0x3C }
  - { offsetInCU: 0xB83B, offset: 0xB83B, size: 0x8, addend: 0x0, symName: __ZNSt3__116allocator_traitsINS_9allocatorINS_11__tree_nodeINS_12__value_typeIciEEPvEEEEE9constructB8ne180100IKcJRSA_EvEEvRS7_PT_DpOT0_, symObjAddr: 0x19B4, symBinAddr: 0x1000021D0, symSize: 0x34 }
  - { offsetInCU: 0xB892, offset: 0xB892, size: 0x8, addend: 0x0, symName: __ZNKSt3__110unique_ptrINS_11__tree_nodeINS_12__value_typeIciEEPvEENS_21__map_node_destructorINS_9allocatorIS5_EEEEEptB8ne180100Ev, symObjAddr: 0x19E8, symBinAddr: 0x100002204, symSize: 0x28 }
  - { offsetInCU: 0xB8B8, offset: 0xB8B8, size: 0x8, addend: 0x0, symName: __ZNSt3__110unique_ptrINS_11__tree_nodeINS_12__value_typeIciEEPvEENS_21__map_node_destructorINS_9allocatorIS5_EEEEE11get_deleterB8ne180100Ev, symObjAddr: 0x1A10, symBinAddr: 0x10000222C, symSize: 0x24 }
  - { offsetInCU: 0xB8DE, offset: 0xB8DE, size: 0x8, addend: 0x0, symName: __ZNSt3__116allocator_traitsINS_9allocatorINS_11__tree_nodeINS_12__value_typeIciEEPvEEEEE9constructB8ne180100IiJEvEEvRS7_PT_DpOT0_, symObjAddr: 0x1A34, symBinAddr: 0x100002250, symSize: 0x2C }
  - { offsetInCU: 0xB920, offset: 0xB920, size: 0x8, addend: 0x0, symName: __ZNSt3__19allocatorINS_11__tree_nodeINS_12__value_typeIciEEPvEEE8allocateB8ne180100Em, symObjAddr: 0x1A60, symBinAddr: 0x10000227C, symSize: 0x8C }
  - { offsetInCU: 0xB95E, offset: 0xB95E, size: 0x8, addend: 0x0, symName: __ZNSt3__116allocator_traitsINS_9allocatorINS_11__tree_nodeINS_12__value_typeIciEEPvEEEEE8max_sizeB8ne180100IS7_vEEmRKS7_, symObjAddr: 0x1AEC, symBinAddr: 0x100002308, symSize: 0x24 }
  - { offsetInCU: 0xB98C, offset: 0xB98C, size: 0x8, addend: 0x0, symName: __ZNKSt3__19allocatorINS_11__tree_nodeINS_12__value_typeIciEEPvEEE8max_sizeB8ne180100Ev, symObjAddr: 0x1B6C, symBinAddr: 0x100002388, symSize: 0x18 }
  - { offsetInCU: 0xB9B2, offset: 0xB9B2, size: 0x8, addend: 0x0, symName: __ZNSt3__121__map_node_destructorINS_9allocatorINS_11__tree_nodeINS_12__value_typeIciEEPvEEEEEC2B8ne180100ERS7_, symObjAddr: 0x1BA8, symBinAddr: 0x1000023C4, symSize: 0x28 }
  - { offsetInCU: 0xB9EB, offset: 0xB9EB, size: 0x8, addend: 0x0, symName: __ZNSt3__110unique_ptrINS_11__tree_nodeINS_12__value_typeIciEEPvEENS_21__map_node_destructorINS_9allocatorIS5_EEEEEC2B8ne180100ILb1EvEEPS5_NS_16__dependent_typeINS_27__unique_ptr_deleter_sfinaeIS9_EEXT_EE20__good_rval_ref_typeE, symObjAddr: 0x1BD0, symBinAddr: 0x1000023EC, symSize: 0x5C }
  - { offsetInCU: 0xBA3C, offset: 0xBA3C, size: 0x8, addend: 0x0, symName: __ZNSt3__117__compressed_pairIPNS_11__tree_nodeINS_12__value_typeIciEEPvEENS_21__map_node_destructorINS_9allocatorIS5_EEEEEC1B8ne180100IRS6_SA_EEOT_OT0_, symObjAddr: 0x1C2C, symBinAddr: 0x100002448, symSize: 0x3C }
  - { offsetInCU: 0xBA94, offset: 0xBA94, size: 0x8, addend: 0x0, symName: __ZNSt3__117__compressed_pairIPNS_11__tree_nodeINS_12__value_typeIciEEPvEENS_21__map_node_destructorINS_9allocatorIS5_EEEEEC2B8ne180100IRS6_SA_EEOT_OT0_, symObjAddr: 0x1C68, symBinAddr: 0x100002484, symSize: 0x48 }
  - { offsetInCU: 0xBAEC, offset: 0xBAEC, size: 0x8, addend: 0x0, symName: __ZNSt3__122__compressed_pair_elemIPNS_11__tree_nodeINS_12__value_typeIciEEPvEELi0ELb0EEC2B8ne180100IRS6_vEEOT_, symObjAddr: 0x1CB0, symBinAddr: 0x1000024CC, symSize: 0x24 }
  - { offsetInCU: 0xBB2E, offset: 0xBB2E, size: 0x8, addend: 0x0, symName: __ZNSt3__122__compressed_pair_elemINS_21__map_node_destructorINS_9allocatorINS_11__tree_nodeINS_12__value_typeIciEEPvEEEEEELi1ELb0EEC2B8ne180100IS9_vEEOT_, symObjAddr: 0x1CD4, symBinAddr: 0x1000024F0, symSize: 0x24 }
  - { offsetInCU: 0xBB70, offset: 0xBB70, size: 0x8, addend: 0x0, symName: __ZNSt3__19allocatorINS_11__tree_nodeINS_12__value_typeIciEEPvEEE9constructB8ne180100IKcJRS8_EEEvPT_DpOT0_, symObjAddr: 0x1CF8, symBinAddr: 0x100002514, symSize: 0x28 }
  - { offsetInCU: 0xBBC6, offset: 0xBBC6, size: 0x8, addend: 0x0, symName: __ZNKSt3__117__compressed_pairIPNS_11__tree_nodeINS_12__value_typeIciEEPvEENS_21__map_node_destructorINS_9allocatorIS5_EEEEE5firstB8ne180100Ev, symObjAddr: 0x1D20, symBinAddr: 0x10000253C, symSize: 0x24 }
  - { offsetInCU: 0xBBEC, offset: 0xBBEC, size: 0x8, addend: 0x0, symName: __ZNKSt3__122__compressed_pair_elemIPNS_11__tree_nodeINS_12__value_typeIciEEPvEELi0ELb0EE5__getB8ne180100Ev, symObjAddr: 0x1D44, symBinAddr: 0x100002560, symSize: 0x14 }
  - { offsetInCU: 0xBC12, offset: 0xBC12, size: 0x8, addend: 0x0, symName: __ZNSt3__117__compressed_pairIPNS_11__tree_nodeINS_12__value_typeIciEEPvEENS_21__map_node_destructorINS_9allocatorIS5_EEEEE6secondB8ne180100Ev, symObjAddr: 0x1D58, symBinAddr: 0x100002574, symSize: 0x28 }
  - { offsetInCU: 0xBC38, offset: 0xBC38, size: 0x8, addend: 0x0, symName: __ZNSt3__122__compressed_pair_elemINS_21__map_node_destructorINS_9allocatorINS_11__tree_nodeINS_12__value_typeIciEEPvEEEEEELi1ELb0EE5__getB8ne180100Ev, symObjAddr: 0x1D80, symBinAddr: 0x10000259C, symSize: 0x14 }
  - { offsetInCU: 0xBC5E, offset: 0xBC5E, size: 0x8, addend: 0x0, symName: __ZNSt3__19allocatorINS_11__tree_nodeINS_12__value_typeIciEEPvEEE9constructB8ne180100IiJEEEvPT_DpOT0_, symObjAddr: 0x1D94, symBinAddr: 0x1000025B0, symSize: 0x1C }
  - { offsetInCU: 0xBCA0, offset: 0xBCA0, size: 0x8, addend: 0x0, symName: __ZNSt3__16__treeINS_12__value_typeIciEENS_19__map_value_compareIcS2_NS_4lessIcEELb1EEENS_9allocatorIS2_EEE4sizeB8ne180100Ev, symObjAddr: 0x20F0, symBinAddr: 0x10000290C, symSize: 0x28 }
  - { offsetInCU: 0xBCC6, offset: 0xBCC6, size: 0x8, addend: 0x0, symName: __ZNKSt3__116__tree_node_baseIPvE15__parent_unsafeB8ne180100Ev, symObjAddr: 0x2118, symBinAddr: 0x100002934, symSize: 0x18 }
  - { offsetInCU: 0xBCEC, offset: 0xBCEC, size: 0x8, addend: 0x0, symName: __ZNSt3__116__tree_node_baseIPvE12__set_parentB8ne180100EPS2_, symObjAddr: 0x2314, symBinAddr: 0x100002B30, symSize: 0x20 }
  - { offsetInCU: 0xBD21, offset: 0xBD21, size: 0x8, addend: 0x0, symName: __ZNSt3__117__compressed_pairImNS_19__map_value_compareIcNS_12__value_typeIciEENS_4lessIcEELb1EEEE5firstB8ne180100Ev, symObjAddr: 0x2334, symBinAddr: 0x100002B50, symSize: 0x24 }
  - { offsetInCU: 0xBD47, offset: 0xBD47, size: 0x8, addend: 0x0, symName: __ZNSt3__122__compressed_pair_elemImLi0ELb0EE5__getB8ne180100Ev, symObjAddr: 0x2358, symBinAddr: 0x100002B74, symSize: 0x14 }
  - { offsetInCU: 0xBD6D, offset: 0xBD6D, size: 0x8, addend: 0x0, symName: __ZNSt3__117__compressed_pairIPNS_11__tree_nodeINS_12__value_typeIciEEPvEENS_21__map_node_destructorINS_9allocatorIS5_EEEEE5firstB8ne180100Ev, symObjAddr: 0x236C, symBinAddr: 0x100002B88, symSize: 0x24 }
  - { offsetInCU: 0xBD93, offset: 0xBD93, size: 0x8, addend: 0x0, symName: __ZNSt3__122__compressed_pair_elemIPNS_11__tree_nodeINS_12__value_typeIciEEPvEELi0ELb0EE5__getB8ne180100Ev, symObjAddr: 0x2390, symBinAddr: 0x100002BAC, symSize: 0x14 }
  - { offsetInCU: 0xBDB9, offset: 0xBDB9, size: 0x8, addend: 0x0, symName: __ZNSt3__110unique_ptrINS_11__tree_nodeINS_12__value_typeIciEEPvEENS_21__map_node_destructorINS_9allocatorIS5_EEEEED2B8ne180100Ev, symObjAddr: 0x23A4, symBinAddr: 0x100002BC0, symSize: 0x30 }
  - { offsetInCU: 0xBDE3, offset: 0xBDE3, size: 0x8, addend: 0x0, symName: __ZNSt3__110unique_ptrINS_11__tree_nodeINS_12__value_typeIciEEPvEENS_21__map_node_destructorINS_9allocatorIS5_EEEEE5resetB8ne180100EPS5_, symObjAddr: 0x23D4, symBinAddr: 0x100002BF0, symSize: 0x78 }
  - { offsetInCU: 0xBE27, offset: 0xBE27, size: 0x8, addend: 0x0, symName: __ZNSt3__121__map_node_destructorINS_9allocatorINS_11__tree_nodeINS_12__value_typeIciEEPvEEEEEclB8ne180100EPS6_, symObjAddr: 0x244C, symBinAddr: 0x100002C68, symSize: 0xE4 }
  - { offsetInCU: 0xBE5C, offset: 0xBE5C, size: 0x8, addend: 0x0, symName: __ZNSt3__116allocator_traitsINS_9allocatorINS_11__tree_nodeINS_12__value_typeIciEEPvEEEEE7destroyB8ne180100IivvEEvRS7_PT_, symObjAddr: 0x2530, symBinAddr: 0x100002D4C, symSize: 0x28 }
  - { offsetInCU: 0xBE97, offset: 0xBE97, size: 0x8, addend: 0x0, symName: __ZNSt3__116allocator_traitsINS_9allocatorINS_11__tree_nodeINS_12__value_typeIciEEPvEEEEE7destroyB8ne180100IKcvvEEvRS7_PT_, symObjAddr: 0x2558, symBinAddr: 0x100002D74, symSize: 0x28 }
  - { offsetInCU: 0xBED2, offset: 0xBED2, size: 0x8, addend: 0x0, symName: __ZNSt3__16__treeINS_12__value_typeIciEENS_19__map_value_compareIcS2_NS_4lessIcEELb1EEENS_9allocatorIS2_EEE5beginB8ne180100Ev, symObjAddr: 0x25A0, symBinAddr: 0x100002DBC, symSize: 0x34 }
  - { offsetInCU: 0xBEF8, offset: 0xBEF8, size: 0x8, addend: 0x0, symName: __ZNSt3__114__map_iteratorINS_15__tree_iteratorINS_12__value_typeIciEEPNS_11__tree_nodeIS3_PvEElEEEC1B8ne180100ES8_, symObjAddr: 0x25D4, symBinAddr: 0x100002DF0, symSize: 0x34 }
  - { offsetInCU: 0xBF31, offset: 0xBF31, size: 0x8, addend: 0x0, symName: __ZNSt3__115__tree_iteratorINS_12__value_typeIciEEPNS_11__tree_nodeIS2_PvEElEC1B8ne180100EPNS_15__tree_end_nodeIPNS_16__tree_node_baseIS4_EEEE, symObjAddr: 0x2608, symBinAddr: 0x100002E24, symSize: 0x34 }
  - { offsetInCU: 0xBF6A, offset: 0xBF6A, size: 0x8, addend: 0x0, symName: __ZNSt3__115__tree_iteratorINS_12__value_typeIciEEPNS_11__tree_nodeIS2_PvEElEC2B8ne180100EPNS_15__tree_end_nodeIPNS_16__tree_node_baseIS4_EEEE, symObjAddr: 0x263C, symBinAddr: 0x100002E58, symSize: 0x20 }
  - { offsetInCU: 0xBFA3, offset: 0xBFA3, size: 0x8, addend: 0x0, symName: __ZNSt3__114__map_iteratorINS_15__tree_iteratorINS_12__value_typeIciEEPNS_11__tree_nodeIS3_PvEElEEEC2B8ne180100ES8_, symObjAddr: 0x265C, symBinAddr: 0x100002E78, symSize: 0x20 }
  - { offsetInCU: 0xBFDC, offset: 0xBFDC, size: 0x8, addend: 0x0, symName: __ZNSt3__16__treeINS_12__value_typeIciEENS_19__map_value_compareIcS2_NS_4lessIcEELb1EEENS_9allocatorIS2_EEE3endB8ne180100Ev, symObjAddr: 0x267C, symBinAddr: 0x100002E98, symSize: 0x34 }
  - { offsetInCU: 0xC002, offset: 0xC002, size: 0x8, addend: 0x0, symName: __ZNSt3__115__tree_iteratorINS_12__value_typeIciEEPNS_11__tree_nodeIS2_PvEElEppB8ne180100Ev, symObjAddr: 0x2714, symBinAddr: 0x100002F30, symSize: 0x38 }
  - { offsetInCU: 0xC028, offset: 0xC028, size: 0x8, addend: 0x0, symName: __ZNKSt3__115__tree_iteratorINS_12__value_typeIciEEPNS_11__tree_nodeIS2_PvEElEptB8ne180100Ev, symObjAddr: 0x280C, symBinAddr: 0x100003028, symSize: 0x2C }
  - { offsetInCU: 0xC04E, offset: 0xC04E, size: 0x8, addend: 0x0, symName: __ZNSt3__114pointer_traitsIPNS_12__value_typeIciEEE10pointer_toB8ne180100ERS2_, symObjAddr: 0x2838, symBinAddr: 0x100003054, symSize: 0x14 }
  - { offsetInCU: 0xC071, offset: 0xC071, size: 0x8, addend: 0x0, symName: __ZNKSt3__115__tree_iteratorINS_12__value_typeIciEEPNS_11__tree_nodeIS2_PvEElE8__get_npB8ne180100Ev, symObjAddr: 0x284C, symBinAddr: 0x100003068, symSize: 0x18 }
  - { offsetInCU: 0xC0B5, offset: 0xC0B5, size: 0x8, addend: 0x0, symName: __ZNKSt3__113basic_ostreamIcNS_11char_traitsIcEEE6sentrycvbB8ne180100Ev, symObjAddr: 0x2A58, symBinAddr: 0x100003274, symSize: 0x1C }
  - { offsetInCU: 0xC0DB, offset: 0xC0DB, size: 0x8, addend: 0x0, symName: __ZNSt3__119ostreambuf_iteratorIcNS_11char_traitsIcEEEC1B8ne180100ERNS_13basic_ostreamIcS2_EE, symObjAddr: 0x2CBC, symBinAddr: 0x1000034D8, symSize: 0x34 }
  - { offsetInCU: 0xC113, offset: 0xC113, size: 0x8, addend: 0x0, symName: __ZNKSt3__18ios_base5flagsB8ne180100Ev, symObjAddr: 0x2CF0, symBinAddr: 0x10000350C, symSize: 0x18 }
  - { offsetInCU: 0xC13B, offset: 0xC13B, size: 0x8, addend: 0x0, symName: __ZNKSt3__19basic_iosIcNS_11char_traitsIcEEE4fillB8ne180100Ev, symObjAddr: 0x2D08, symBinAddr: 0x100003524, symSize: 0x64 }
  - { offsetInCU: 0xC163, offset: 0xC163, size: 0x8, addend: 0x0, symName: __ZNKSt3__119ostreambuf_iteratorIcNS_11char_traitsIcEEE6failedB8ne180100Ev, symObjAddr: 0x2D6C, symBinAddr: 0x100003588, symSize: 0x24 }
  - { offsetInCU: 0xC189, offset: 0xC189, size: 0x8, addend: 0x0, symName: __ZNSt3__19basic_iosIcNS_11char_traitsIcEEE8setstateB8ne180100Ej, symObjAddr: 0x2D90, symBinAddr: 0x1000035AC, symSize: 0x2C }
  - { offsetInCU: 0xC1BE, offset: 0xC1BE, size: 0x8, addend: 0x0, symName: __ZNKSt3__18ios_base5widthB8ne180100Ev, symObjAddr: 0x2DBC, symBinAddr: 0x1000035D8, symSize: 0x18 }
  - { offsetInCU: 0xC1E6, offset: 0xC1E6, size: 0x8, addend: 0x0, symName: __ZNSt3__115basic_streambufIcNS_11char_traitsIcEEE5sputnB8ne180100EPKcl, symObjAddr: 0x2DD4, symBinAddr: 0x1000035F0, symSize: 0x3C }
  - { offsetInCU: 0xC228, offset: 0xC228, size: 0x8, addend: 0x0, symName: __ZNSt3__112basic_stringIcNS_11char_traitsIcEENS_9allocatorIcEEEC1B8ne180100Emc, symObjAddr: 0x2E10, symBinAddr: 0x10000362C, symSize: 0x3C }
  - { offsetInCU: 0xC270, offset: 0xC270, size: 0x8, addend: 0x0, symName: __ZNKSt3__112basic_stringIcNS_11char_traitsIcEENS_9allocatorIcEEE4dataB8ne180100Ev, symObjAddr: 0x2E4C, symBinAddr: 0x100003668, symSize: 0x28 }
  - { offsetInCU: 0xC296, offset: 0xC296, size: 0x8, addend: 0x0, symName: __ZNSt3__18ios_base5widthB8ne180100El, symObjAddr: 0x2E74, symBinAddr: 0x100003690, symSize: 0x2C }
  - { offsetInCU: 0xC2DC, offset: 0xC2DC, size: 0x8, addend: 0x0, symName: __ZNSt3__112basic_stringIcNS_11char_traitsIcEENS_9allocatorIcEEEC2B8ne180100Emc, symObjAddr: 0x2EA0, symBinAddr: 0x1000036BC, symSize: 0x4C }
  - { offsetInCU: 0xC324, offset: 0xC324, size: 0x8, addend: 0x0, symName: __ZNKSt3__112basic_stringIcNS_11char_traitsIcEENS_9allocatorIcEEE13__get_pointerB8ne180100Ev, symObjAddr: 0x2F00, symBinAddr: 0x10000371C, symSize: 0x54 }
  - { offsetInCU: 0xC34A, offset: 0xC34A, size: 0x8, addend: 0x0, symName: __ZNKSt3__112basic_stringIcNS_11char_traitsIcEENS_9allocatorIcEEE18__get_long_pointerB8ne180100Ev, symObjAddr: 0x2F54, symBinAddr: 0x100003770, symSize: 0x28 }
  - { offsetInCU: 0xC370, offset: 0xC370, size: 0x8, addend: 0x0, symName: __ZNKSt3__112basic_stringIcNS_11char_traitsIcEENS_9allocatorIcEEE19__get_short_pointerB8ne180100Ev, symObjAddr: 0x2F7C, symBinAddr: 0x100003798, symSize: 0x28 }
  - { offsetInCU: 0xC396, offset: 0xC396, size: 0x8, addend: 0x0, symName: __ZNSt3__114pointer_traitsIPKcE10pointer_toB8ne180100ERS1_, symObjAddr: 0x2FA4, symBinAddr: 0x1000037C0, symSize: 0x14 }
  - { offsetInCU: 0xC3B9, offset: 0xC3B9, size: 0x8, addend: 0x0, symName: __ZNSt3__119ostreambuf_iteratorIcNS_11char_traitsIcEEEC2B8ne180100ERNS_13basic_ostreamIcS2_EE, symObjAddr: 0x2FB8, symBinAddr: 0x1000037D4, symSize: 0x68 }
  - { offsetInCU: 0xC3F1, offset: 0xC3F1, size: 0x8, addend: 0x0, symName: __ZNKSt3__19basic_iosIcNS_11char_traitsIcEEE5rdbufB8ne180100Ev, symObjAddr: 0x3020, symBinAddr: 0x10000383C, symSize: 0x24 }
  - { offsetInCU: 0xC419, offset: 0xC419, size: 0x8, addend: 0x0, symName: __ZNKSt3__18ios_base5rdbufB8ne180100Ev, symObjAddr: 0x3044, symBinAddr: 0x100003860, symSize: 0x18 }
  - { offsetInCU: 0xC43F, offset: 0xC43F, size: 0x8, addend: 0x0, symName: __ZNSt3__111char_traitsIcE11eq_int_typeB8ne180100Eii, symObjAddr: 0x305C, symBinAddr: 0x100003878, symSize: 0x28 }
  - { offsetInCU: 0xC472, offset: 0xC472, size: 0x8, addend: 0x0, symName: __ZNSt3__111char_traitsIcE3eofB8ne180100Ev, symObjAddr: 0x3084, symBinAddr: 0x1000038A0, symSize: 0x8 }
  - { offsetInCU: 0xC486, offset: 0xC486, size: 0x8, addend: 0x0, symName: __ZNKSt3__19basic_iosIcNS_11char_traitsIcEEE5widenB8ne180100Ec, symObjAddr: 0x308C, symBinAddr: 0x1000038A8, symSize: 0x8C }
  - { offsetInCU: 0xC4F4, offset: 0xC4F4, size: 0x8, addend: 0x0, symName: __ZNKSt3__15ctypeIcE5widenB8ne180100Ec, symObjAddr: 0x3144, symBinAddr: 0x100003960, symSize: 0x38 }
  - { offsetInCU: 0xC529, offset: 0xC529, size: 0x8, addend: 0x0, symName: __ZNSt3__18ios_base8setstateB8ne180100Ej, symObjAddr: 0x317C, symBinAddr: 0x100003998, symSize: 0x34 }
...
