---
triple:          'arm64-apple-darwin'
binary-path:     '/Volumes/Samsung/Coding/project/Project_2024/CrackYourPlacement/CrackYourPlacement/oops/output/polymorphism'
relocations:
  - { offsetInCU: 0x2E37, offset: 0x2E37, size: 0x8, addend: 0x0, symName: __ZNSt3__124__put_character_sequenceB8ne180100IcNS_11char_traitsIcEEEERNS_13basic_ostreamIT_T0_EES7_PKS4_m, symObjAddr: 0x1C8, symBinAddr: 0x100003178, symSize: 0x1F4 }
  - { offsetInCU: 0x47D5, offset: 0x47D5, size: 0x8, addend: 0x0, symName: __ZNSt3__1lsB8ne180100INS_11char_traitsIcEEEERNS_13basic_ostreamIcT_EES6_PKc, symObjAddr: 0x180, symBinAddr: 0x100003130, symSize: 0x48 }
  - { offsetInCU: 0x481B, offset: 0x481B, size: 0x8, addend: 0x0, symName: __ZNSt3__116__pad_and_outputB8ne180100IcNS_11char_traitsIcEEEENS_19ostreambuf_iteratorIT_T0_EES6_PKS4_S8_S8_RNS_8ios_baseES4_, symObjAddr: 0x420, symBinAddr: 0x1000033D0, symSize: 0x248 }
  - { offsetInCU: 0x48EA, offset: 0x48EA, size: 0x8, addend: 0x0, symName: __ZNSt3__112__to_addressB8ne180100IKcEEPT_S3_, symObjAddr: 0x99C, symBinAddr: 0x10000394C, symSize: 0x14 }
  - { offsetInCU: 0x491F, offset: 0x491F, size: 0x8, addend: 0x0, symName: __ZNSt3__130__libcpp_is_constant_evaluatedB8ne180100Ev, symObjAddr: 0xAE8, symBinAddr: 0x100003A98, symSize: 0xC }
  - { offsetInCU: 0x496F, offset: 0x496F, size: 0x8, addend: 0x0, symName: __ZNSt3__19use_facetB8ne180100INS_5ctypeIcEEEERKT_RKNS_6localeE, symObjAddr: 0xCA0, symBinAddr: 0x100003C50, symSize: 0x2C }
  - { offsetInCU: 0x4E3C, offset: 0x4E3C, size: 0x8, addend: 0x0, symName: __ZNSt3__118__constexpr_strlenB8ne180100EPKc, symObjAddr: 0xD38, symBinAddr: 0x100003CE8, symSize: 0x24 }
  - { offsetInCU: 0x73FA, offset: 0x73FA, size: 0x8, addend: 0x0, symName: _main, symObjAddr: 0x0, symBinAddr: 0x100002FB0, symSize: 0x5C }
  - { offsetInCU: 0x74C5, offset: 0x74C5, size: 0x8, addend: 0x0, symName: __ZN3DogC1Ev, symObjAddr: 0x5C, symBinAddr: 0x10000300C, symSize: 0x2C }
  - { offsetInCU: 0x74EF, offset: 0x74EF, size: 0x8, addend: 0x0, symName: __ZN6Animal5soundEv, symObjAddr: 0x88, symBinAddr: 0x100003038, symSize: 0x30 }
  - { offsetInCU: 0x7513, offset: 0x7513, size: 0x8, addend: 0x0, symName: __ZN6Animal5printEv, symObjAddr: 0xB8, symBinAddr: 0x100003068, symSize: 0x30 }
  - { offsetInCU: 0x7537, offset: 0x7537, size: 0x8, addend: 0x0, symName: __ZN3DogC2Ev, symObjAddr: 0xE8, symBinAddr: 0x100003098, symSize: 0x44 }
  - { offsetInCU: 0x7561, offset: 0x7561, size: 0x8, addend: 0x0, symName: __ZN6AnimalC2Ev, symObjAddr: 0x12C, symBinAddr: 0x1000030DC, symSize: 0x24 }
  - { offsetInCU: 0x758B, offset: 0x758B, size: 0x8, addend: 0x0, symName: __ZN3Dog5soundEv, symObjAddr: 0x150, symBinAddr: 0x100003100, symSize: 0x30 }
  - { offsetInCU: 0x75AF, offset: 0x75AF, size: 0x8, addend: 0x0, symName: __ZNSt3__111char_traitsIcE6lengthB8ne180100EPKc, symObjAddr: 0x3BC, symBinAddr: 0x10000336C, symSize: 0x48 }
  - { offsetInCU: 0x75EF, offset: 0x75EF, size: 0x8, addend: 0x0, symName: __ZNKSt3__113basic_ostreamIcNS_11char_traitsIcEEE6sentrycvbB8ne180100Ev, symObjAddr: 0x404, symBinAddr: 0x1000033B4, symSize: 0x1C }
  - { offsetInCU: 0x7613, offset: 0x7613, size: 0x8, addend: 0x0, symName: __ZNSt3__119ostreambuf_iteratorIcNS_11char_traitsIcEEEC1B8ne180100ERNS_13basic_ostreamIcS2_EE, symObjAddr: 0x668, symBinAddr: 0x100003618, symSize: 0x34 }
  - { offsetInCU: 0x7649, offset: 0x7649, size: 0x8, addend: 0x0, symName: __ZNKSt3__18ios_base5flagsB8ne180100Ev, symObjAddr: 0x69C, symBinAddr: 0x10000364C, symSize: 0x18 }
  - { offsetInCU: 0x766F, offset: 0x766F, size: 0x8, addend: 0x0, symName: __ZNKSt3__19basic_iosIcNS_11char_traitsIcEEE4fillB8ne180100Ev, symObjAddr: 0x6B4, symBinAddr: 0x100003664, symSize: 0x64 }
  - { offsetInCU: 0x7695, offset: 0x7695, size: 0x8, addend: 0x0, symName: __ZNKSt3__119ostreambuf_iteratorIcNS_11char_traitsIcEEE6failedB8ne180100Ev, symObjAddr: 0x718, symBinAddr: 0x1000036C8, symSize: 0x24 }
  - { offsetInCU: 0x76B9, offset: 0x76B9, size: 0x8, addend: 0x0, symName: __ZNSt3__19basic_iosIcNS_11char_traitsIcEEE8setstateB8ne180100Ej, symObjAddr: 0x73C, symBinAddr: 0x1000036EC, symSize: 0x2C }
  - { offsetInCU: 0x76EC, offset: 0x76EC, size: 0x8, addend: 0x0, symName: __ZNKSt3__18ios_base5widthB8ne180100Ev, symObjAddr: 0x774, symBinAddr: 0x100003724, symSize: 0x18 }
  - { offsetInCU: 0x7712, offset: 0x7712, size: 0x8, addend: 0x0, symName: __ZNSt3__115basic_streambufIcNS_11char_traitsIcEEE5sputnB8ne180100EPKcl, symObjAddr: 0x78C, symBinAddr: 0x10000373C, symSize: 0x3C }
  - { offsetInCU: 0x7752, offset: 0x7752, size: 0x8, addend: 0x0, symName: __ZNSt3__112basic_stringIcNS_11char_traitsIcEENS_9allocatorIcEEEC1B8ne180100Emc, symObjAddr: 0x7C8, symBinAddr: 0x100003778, symSize: 0x3C }
  - { offsetInCU: 0x7798, offset: 0x7798, size: 0x8, addend: 0x0, symName: __ZNKSt3__112basic_stringIcNS_11char_traitsIcEENS_9allocatorIcEEE4dataB8ne180100Ev, symObjAddr: 0x804, symBinAddr: 0x1000037B4, symSize: 0x28 }
  - { offsetInCU: 0x77BC, offset: 0x77BC, size: 0x8, addend: 0x0, symName: __ZNSt3__18ios_base5widthB8ne180100El, symObjAddr: 0x82C, symBinAddr: 0x1000037DC, symSize: 0x2C }
  - { offsetInCU: 0x7800, offset: 0x7800, size: 0x8, addend: 0x0, symName: __ZNSt3__112basic_stringIcNS_11char_traitsIcEENS_9allocatorIcEEEC2B8ne180100Emc, symObjAddr: 0x858, symBinAddr: 0x100003808, symSize: 0x4C }
  - { offsetInCU: 0x784B, offset: 0x784B, size: 0x8, addend: 0x0, symName: __ZNSt3__117__compressed_pairINS_12basic_stringIcNS_11char_traitsIcEENS_9allocatorIcEEE5__repES5_EC1B8ne180100INS_18__default_init_tagESA_EEOT_OT0_, symObjAddr: 0x8A4, symBinAddr: 0x100003854, symSize: 0x3C }
  - { offsetInCU: 0x78A1, offset: 0x78A1, size: 0x8, addend: 0x0, symName: __ZNSt3__117__compressed_pairINS_12basic_stringIcNS_11char_traitsIcEENS_9allocatorIcEEE5__repES5_EC2B8ne180100INS_18__default_init_tagESA_EEOT_OT0_, symObjAddr: 0x8E0, symBinAddr: 0x100003890, symSize: 0x3C }
  - { offsetInCU: 0x78F7, offset: 0x78F7, size: 0x8, addend: 0x0, symName: __ZNSt3__122__compressed_pair_elemINS_12basic_stringIcNS_11char_traitsIcEENS_9allocatorIcEEE5__repELi0ELb0EEC2B8ne180100ENS_18__default_init_tagE, symObjAddr: 0x91C, symBinAddr: 0x1000038CC, symSize: 0x14 }
  - { offsetInCU: 0x7929, offset: 0x7929, size: 0x8, addend: 0x0, symName: __ZNSt3__122__compressed_pair_elemINS_9allocatorIcEELi1ELb1EEC2B8ne180100ENS_18__default_init_tagE, symObjAddr: 0x930, symBinAddr: 0x1000038E0, symSize: 0x2C }
  - { offsetInCU: 0x795B, offset: 0x795B, size: 0x8, addend: 0x0, symName: __ZNSt3__19allocatorIcEC2B8ne180100Ev, symObjAddr: 0x95C, symBinAddr: 0x10000390C, symSize: 0x2C }
  - { offsetInCU: 0x7983, offset: 0x7983, size: 0x8, addend: 0x0, symName: __ZNSt3__116__non_trivial_ifILb1ENS_9allocatorIcEEEC2B8ne180100Ev, symObjAddr: 0x988, symBinAddr: 0x100003938, symSize: 0x14 }
  - { offsetInCU: 0x79AB, offset: 0x79AB, size: 0x8, addend: 0x0, symName: __ZNKSt3__112basic_stringIcNS_11char_traitsIcEENS_9allocatorIcEEE13__get_pointerB8ne180100Ev, symObjAddr: 0x9B0, symBinAddr: 0x100003960, symSize: 0x54 }
  - { offsetInCU: 0x79CF, offset: 0x79CF, size: 0x8, addend: 0x0, symName: __ZNKSt3__112basic_stringIcNS_11char_traitsIcEENS_9allocatorIcEEE9__is_longB8ne180100Ev, symObjAddr: 0xA04, symBinAddr: 0x1000039B4, symSize: 0x94 }
  - { offsetInCU: 0x79F3, offset: 0x79F3, size: 0x8, addend: 0x0, symName: __ZNKSt3__112basic_stringIcNS_11char_traitsIcEENS_9allocatorIcEEE18__get_long_pointerB8ne180100Ev, symObjAddr: 0xA98, symBinAddr: 0x100003A48, symSize: 0x28 }
  - { offsetInCU: 0x7A17, offset: 0x7A17, size: 0x8, addend: 0x0, symName: __ZNKSt3__112basic_stringIcNS_11char_traitsIcEENS_9allocatorIcEEE19__get_short_pointerB8ne180100Ev, symObjAddr: 0xAC0, symBinAddr: 0x100003A70, symSize: 0x28 }
  - { offsetInCU: 0x7A3B, offset: 0x7A3B, size: 0x8, addend: 0x0, symName: __ZNKSt3__117__compressed_pairINS_12basic_stringIcNS_11char_traitsIcEENS_9allocatorIcEEE5__repES5_E5firstB8ne180100Ev, symObjAddr: 0xAF4, symBinAddr: 0x100003AA4, symSize: 0x24 }
  - { offsetInCU: 0x7A5F, offset: 0x7A5F, size: 0x8, addend: 0x0, symName: __ZNKSt3__122__compressed_pair_elemINS_12basic_stringIcNS_11char_traitsIcEENS_9allocatorIcEEE5__repELi0ELb0EE5__getB8ne180100Ev, symObjAddr: 0xB18, symBinAddr: 0x100003AC8, symSize: 0x14 }
  - { offsetInCU: 0x7A83, offset: 0x7A83, size: 0x8, addend: 0x0, symName: __ZNSt3__114pointer_traitsIPKcE10pointer_toB8ne180100ERS1_, symObjAddr: 0xB2C, symBinAddr: 0x100003ADC, symSize: 0x14 }
  - { offsetInCU: 0x7AA5, offset: 0x7AA5, size: 0x8, addend: 0x0, symName: __ZNSt3__119ostreambuf_iteratorIcNS_11char_traitsIcEEEC2B8ne180100ERNS_13basic_ostreamIcS2_EE, symObjAddr: 0xB40, symBinAddr: 0x100003AF0, symSize: 0x68 }
  - { offsetInCU: 0x7ADB, offset: 0x7ADB, size: 0x8, addend: 0x0, symName: __ZNKSt3__19basic_iosIcNS_11char_traitsIcEEE5rdbufB8ne180100Ev, symObjAddr: 0xBA8, symBinAddr: 0x100003B58, symSize: 0x24 }
  - { offsetInCU: 0x7B01, offset: 0x7B01, size: 0x8, addend: 0x0, symName: __ZNKSt3__18ios_base5rdbufB8ne180100Ev, symObjAddr: 0xBCC, symBinAddr: 0x100003B7C, symSize: 0x18 }
  - { offsetInCU: 0x7B25, offset: 0x7B25, size: 0x8, addend: 0x0, symName: __ZNSt3__111char_traitsIcE11eq_int_typeB8ne180100Eii, symObjAddr: 0xBE4, symBinAddr: 0x100003B94, symSize: 0x28 }
  - { offsetInCU: 0x7B58, offset: 0x7B58, size: 0x8, addend: 0x0, symName: __ZNSt3__111char_traitsIcE3eofB8ne180100Ev, symObjAddr: 0xC0C, symBinAddr: 0x100003BBC, symSize: 0x8 }
  - { offsetInCU: 0x7B6A, offset: 0x7B6A, size: 0x8, addend: 0x0, symName: __ZNKSt3__19basic_iosIcNS_11char_traitsIcEEE5widenB8ne180100Ec, symObjAddr: 0xC14, symBinAddr: 0x100003BC4, symSize: 0x8C }
  - { offsetInCU: 0x7BD6, offset: 0x7BD6, size: 0x8, addend: 0x0, symName: __ZNKSt3__15ctypeIcE5widenB8ne180100Ec, symObjAddr: 0xCCC, symBinAddr: 0x100003C7C, symSize: 0x38 }
  - { offsetInCU: 0x7C09, offset: 0x7C09, size: 0x8, addend: 0x0, symName: __ZNSt3__18ios_base8setstateB8ne180100Ej, symObjAddr: 0xD04, symBinAddr: 0x100003CB4, symSize: 0x34 }
...
