---
triple:          'arm64-apple-darwin'
binary-path:     '/Volumes/Samsung/Coding/project/Project_2024/CrackYourPlacement/CrackYourPlacement/oops/output/abstract'
relocations:
  - { offsetInCU: 0x2E37, offset: 0x2E37, size: 0x8, addend: 0x0, symName: __ZNSt3__124__put_character_sequenceB8ne180100IcNS_11char_traitsIcEEEERNS_13basic_ostreamIT_T0_EES7_PKS4_m, symObjAddr: 0x270, symBinAddr: 0x1000030F0, symSize: 0x1F4 }
  - { offsetInCU: 0x47D5, offset: 0x47D5, size: 0x8, addend: 0x0, symName: __ZNSt3__1lsB8ne180100INS_11char_traitsIcEEEERNS_13basic_ostreamIcT_EES6_PKc, symObjAddr: 0x1A4, symBinAddr: 0x100003024, symSize: 0x48 }
  - { offsetInCU: 0x481B, offset: 0x481B, size: 0x8, addend: 0x0, symName: __ZNSt3__14endlB8ne180100IcNS_11char_traitsIcEEEERNS_13basic_ostreamIT_T0_EES7_, symObjAddr: 0x218, symBinAddr: 0x100003098, symSize: 0x58 }
  - { offsetInCU: 0x485B, offset: 0x485B, size: 0x8, addend: 0x0, symName: __ZNSt3__116__pad_and_outputB8ne180100IcNS_11char_traitsIcEEEENS_19ostreambuf_iteratorIT_T0_EES6_PKS4_S8_S8_RNS_8ios_baseES4_, symObjAddr: 0x4C8, symBinAddr: 0x100003348, symSize: 0x248 }
  - { offsetInCU: 0x492A, offset: 0x492A, size: 0x8, addend: 0x0, symName: __ZNSt3__112__to_addressB8ne180100IKcEEPT_S3_, symObjAddr: 0xA44, symBinAddr: 0x1000038C4, symSize: 0x14 }
  - { offsetInCU: 0x495F, offset: 0x495F, size: 0x8, addend: 0x0, symName: __ZNSt3__130__libcpp_is_constant_evaluatedB8ne180100Ev, symObjAddr: 0xB90, symBinAddr: 0x100003A10, symSize: 0xC }
  - { offsetInCU: 0x49AF, offset: 0x49AF, size: 0x8, addend: 0x0, symName: __ZNSt3__19use_facetB8ne180100INS_5ctypeIcEEEERKT_RKNS_6localeE, symObjAddr: 0xD48, symBinAddr: 0x100003BC8, symSize: 0x2C }
  - { offsetInCU: 0x4E7C, offset: 0x4E7C, size: 0x8, addend: 0x0, symName: __ZNSt3__118__constexpr_strlenB8ne180100EPKc, symObjAddr: 0xDE0, symBinAddr: 0x100003C60, symSize: 0x24 }
  - { offsetInCU: 0x743A, offset: 0x743A, size: 0x8, addend: 0x0, symName: _main, symObjAddr: 0x0, symBinAddr: 0x100002E80, symSize: 0x78 }
  - { offsetInCU: 0x7501, offset: 0x7501, size: 0x8, addend: 0x0, symName: __ZN3DogC1Ev, symObjAddr: 0x78, symBinAddr: 0x100002EF8, symSize: 0x2C }
  - { offsetInCU: 0x756B, offset: 0x756B, size: 0x8, addend: 0x0, symName: __ZN3CatC1Ev, symObjAddr: 0xA4, symBinAddr: 0x100002F24, symSize: 0x2C }
  - { offsetInCU: 0x7595, offset: 0x7595, size: 0x8, addend: 0x0, symName: __ZN3Dog5soundEv, symObjAddr: 0xD0, symBinAddr: 0x100002F50, symSize: 0x30 }
  - { offsetInCU: 0x75B9, offset: 0x75B9, size: 0x8, addend: 0x0, symName: __ZN3DogC2Ev, symObjAddr: 0x100, symBinAddr: 0x100002F80, symSize: 0x44 }
  - { offsetInCU: 0x75E3, offset: 0x75E3, size: 0x8, addend: 0x0, symName: __ZN6AnimalC2Ev, symObjAddr: 0x144, symBinAddr: 0x100002FC4, symSize: 0x24 }
  - { offsetInCU: 0x760D, offset: 0x760D, size: 0x8, addend: 0x0, symName: __ZN6Animal5soundEv, symObjAddr: 0x168, symBinAddr: 0x100002FE8, symSize: 0x3C }
  - { offsetInCU: 0x7631, offset: 0x7631, size: 0x8, addend: 0x0, symName: __ZNSt3__113basic_ostreamIcNS_11char_traitsIcEEElsB8ne180100EPFRS3_S4_E, symObjAddr: 0x1EC, symBinAddr: 0x10000306C, symSize: 0x2C }
  - { offsetInCU: 0x7663, offset: 0x7663, size: 0x8, addend: 0x0, symName: __ZNSt3__111char_traitsIcE6lengthB8ne180100EPKc, symObjAddr: 0x464, symBinAddr: 0x1000032E4, symSize: 0x48 }
  - { offsetInCU: 0x76A3, offset: 0x76A3, size: 0x8, addend: 0x0, symName: __ZNKSt3__113basic_ostreamIcNS_11char_traitsIcEEE6sentrycvbB8ne180100Ev, symObjAddr: 0x4AC, symBinAddr: 0x10000332C, symSize: 0x1C }
  - { offsetInCU: 0x76C7, offset: 0x76C7, size: 0x8, addend: 0x0, symName: __ZNSt3__119ostreambuf_iteratorIcNS_11char_traitsIcEEEC1B8ne180100ERNS_13basic_ostreamIcS2_EE, symObjAddr: 0x710, symBinAddr: 0x100003590, symSize: 0x34 }
  - { offsetInCU: 0x76FD, offset: 0x76FD, size: 0x8, addend: 0x0, symName: __ZNKSt3__18ios_base5flagsB8ne180100Ev, symObjAddr: 0x744, symBinAddr: 0x1000035C4, symSize: 0x18 }
  - { offsetInCU: 0x7723, offset: 0x7723, size: 0x8, addend: 0x0, symName: __ZNKSt3__19basic_iosIcNS_11char_traitsIcEEE4fillB8ne180100Ev, symObjAddr: 0x75C, symBinAddr: 0x1000035DC, symSize: 0x64 }
  - { offsetInCU: 0x7749, offset: 0x7749, size: 0x8, addend: 0x0, symName: __ZNKSt3__119ostreambuf_iteratorIcNS_11char_traitsIcEEE6failedB8ne180100Ev, symObjAddr: 0x7C0, symBinAddr: 0x100003640, symSize: 0x24 }
  - { offsetInCU: 0x776D, offset: 0x776D, size: 0x8, addend: 0x0, symName: __ZNSt3__19basic_iosIcNS_11char_traitsIcEEE8setstateB8ne180100Ej, symObjAddr: 0x7E4, symBinAddr: 0x100003664, symSize: 0x2C }
  - { offsetInCU: 0x77A0, offset: 0x77A0, size: 0x8, addend: 0x0, symName: __ZNKSt3__18ios_base5widthB8ne180100Ev, symObjAddr: 0x81C, symBinAddr: 0x10000369C, symSize: 0x18 }
  - { offsetInCU: 0x77C6, offset: 0x77C6, size: 0x8, addend: 0x0, symName: __ZNSt3__115basic_streambufIcNS_11char_traitsIcEEE5sputnB8ne180100EPKcl, symObjAddr: 0x834, symBinAddr: 0x1000036B4, symSize: 0x3C }
  - { offsetInCU: 0x7806, offset: 0x7806, size: 0x8, addend: 0x0, symName: __ZNSt3__112basic_stringIcNS_11char_traitsIcEENS_9allocatorIcEEEC1B8ne180100Emc, symObjAddr: 0x870, symBinAddr: 0x1000036F0, symSize: 0x3C }
  - { offsetInCU: 0x784C, offset: 0x784C, size: 0x8, addend: 0x0, symName: __ZNKSt3__112basic_stringIcNS_11char_traitsIcEENS_9allocatorIcEEE4dataB8ne180100Ev, symObjAddr: 0x8AC, symBinAddr: 0x10000372C, symSize: 0x28 }
  - { offsetInCU: 0x7870, offset: 0x7870, size: 0x8, addend: 0x0, symName: __ZNSt3__18ios_base5widthB8ne180100El, symObjAddr: 0x8D4, symBinAddr: 0x100003754, symSize: 0x2C }
  - { offsetInCU: 0x78B4, offset: 0x78B4, size: 0x8, addend: 0x0, symName: __ZNSt3__112basic_stringIcNS_11char_traitsIcEENS_9allocatorIcEEEC2B8ne180100Emc, symObjAddr: 0x900, symBinAddr: 0x100003780, symSize: 0x4C }
  - { offsetInCU: 0x78FF, offset: 0x78FF, size: 0x8, addend: 0x0, symName: __ZNSt3__117__compressed_pairINS_12basic_stringIcNS_11char_traitsIcEENS_9allocatorIcEEE5__repES5_EC1B8ne180100INS_18__default_init_tagESA_EEOT_OT0_, symObjAddr: 0x94C, symBinAddr: 0x1000037CC, symSize: 0x3C }
  - { offsetInCU: 0x7955, offset: 0x7955, size: 0x8, addend: 0x0, symName: __ZNSt3__117__compressed_pairINS_12basic_stringIcNS_11char_traitsIcEENS_9allocatorIcEEE5__repES5_EC2B8ne180100INS_18__default_init_tagESA_EEOT_OT0_, symObjAddr: 0x988, symBinAddr: 0x100003808, symSize: 0x3C }
  - { offsetInCU: 0x79AB, offset: 0x79AB, size: 0x8, addend: 0x0, symName: __ZNSt3__122__compressed_pair_elemINS_12basic_stringIcNS_11char_traitsIcEENS_9allocatorIcEEE5__repELi0ELb0EEC2B8ne180100ENS_18__default_init_tagE, symObjAddr: 0x9C4, symBinAddr: 0x100003844, symSize: 0x14 }
  - { offsetInCU: 0x79DD, offset: 0x79DD, size: 0x8, addend: 0x0, symName: __ZNSt3__122__compressed_pair_elemINS_9allocatorIcEELi1ELb1EEC2B8ne180100ENS_18__default_init_tagE, symObjAddr: 0x9D8, symBinAddr: 0x100003858, symSize: 0x2C }
  - { offsetInCU: 0x7A0F, offset: 0x7A0F, size: 0x8, addend: 0x0, symName: __ZNSt3__19allocatorIcEC2B8ne180100Ev, symObjAddr: 0xA04, symBinAddr: 0x100003884, symSize: 0x2C }
  - { offsetInCU: 0x7A37, offset: 0x7A37, size: 0x8, addend: 0x0, symName: __ZNSt3__116__non_trivial_ifILb1ENS_9allocatorIcEEEC2B8ne180100Ev, symObjAddr: 0xA30, symBinAddr: 0x1000038B0, symSize: 0x14 }
  - { offsetInCU: 0x7A5F, offset: 0x7A5F, size: 0x8, addend: 0x0, symName: __ZNKSt3__112basic_stringIcNS_11char_traitsIcEENS_9allocatorIcEEE13__get_pointerB8ne180100Ev, symObjAddr: 0xA58, symBinAddr: 0x1000038D8, symSize: 0x54 }
  - { offsetInCU: 0x7A83, offset: 0x7A83, size: 0x8, addend: 0x0, symName: __ZNKSt3__112basic_stringIcNS_11char_traitsIcEENS_9allocatorIcEEE9__is_longB8ne180100Ev, symObjAddr: 0xAAC, symBinAddr: 0x10000392C, symSize: 0x94 }
  - { offsetInCU: 0x7AA7, offset: 0x7AA7, size: 0x8, addend: 0x0, symName: __ZNKSt3__112basic_stringIcNS_11char_traitsIcEENS_9allocatorIcEEE18__get_long_pointerB8ne180100Ev, symObjAddr: 0xB40, symBinAddr: 0x1000039C0, symSize: 0x28 }
  - { offsetInCU: 0x7ACB, offset: 0x7ACB, size: 0x8, addend: 0x0, symName: __ZNKSt3__112basic_stringIcNS_11char_traitsIcEENS_9allocatorIcEEE19__get_short_pointerB8ne180100Ev, symObjAddr: 0xB68, symBinAddr: 0x1000039E8, symSize: 0x28 }
  - { offsetInCU: 0x7AEF, offset: 0x7AEF, size: 0x8, addend: 0x0, symName: __ZNKSt3__117__compressed_pairINS_12basic_stringIcNS_11char_traitsIcEENS_9allocatorIcEEE5__repES5_E5firstB8ne180100Ev, symObjAddr: 0xB9C, symBinAddr: 0x100003A1C, symSize: 0x24 }
  - { offsetInCU: 0x7B13, offset: 0x7B13, size: 0x8, addend: 0x0, symName: __ZNKSt3__122__compressed_pair_elemINS_12basic_stringIcNS_11char_traitsIcEENS_9allocatorIcEEE5__repELi0ELb0EE5__getB8ne180100Ev, symObjAddr: 0xBC0, symBinAddr: 0x100003A40, symSize: 0x14 }
  - { offsetInCU: 0x7B37, offset: 0x7B37, size: 0x8, addend: 0x0, symName: __ZNSt3__114pointer_traitsIPKcE10pointer_toB8ne180100ERS1_, symObjAddr: 0xBD4, symBinAddr: 0x100003A54, symSize: 0x14 }
  - { offsetInCU: 0x7B59, offset: 0x7B59, size: 0x8, addend: 0x0, symName: __ZNSt3__119ostreambuf_iteratorIcNS_11char_traitsIcEEEC2B8ne180100ERNS_13basic_ostreamIcS2_EE, symObjAddr: 0xBE8, symBinAddr: 0x100003A68, symSize: 0x68 }
  - { offsetInCU: 0x7B8F, offset: 0x7B8F, size: 0x8, addend: 0x0, symName: __ZNKSt3__19basic_iosIcNS_11char_traitsIcEEE5rdbufB8ne180100Ev, symObjAddr: 0xC50, symBinAddr: 0x100003AD0, symSize: 0x24 }
  - { offsetInCU: 0x7BB5, offset: 0x7BB5, size: 0x8, addend: 0x0, symName: __ZNKSt3__18ios_base5rdbufB8ne180100Ev, symObjAddr: 0xC74, symBinAddr: 0x100003AF4, symSize: 0x18 }
  - { offsetInCU: 0x7BD9, offset: 0x7BD9, size: 0x8, addend: 0x0, symName: __ZNSt3__111char_traitsIcE11eq_int_typeB8ne180100Eii, symObjAddr: 0xC8C, symBinAddr: 0x100003B0C, symSize: 0x28 }
  - { offsetInCU: 0x7C0C, offset: 0x7C0C, size: 0x8, addend: 0x0, symName: __ZNSt3__111char_traitsIcE3eofB8ne180100Ev, symObjAddr: 0xCB4, symBinAddr: 0x100003B34, symSize: 0x8 }
  - { offsetInCU: 0x7C1E, offset: 0x7C1E, size: 0x8, addend: 0x0, symName: __ZNKSt3__19basic_iosIcNS_11char_traitsIcEEE5widenB8ne180100Ec, symObjAddr: 0xCBC, symBinAddr: 0x100003B3C, symSize: 0x8C }
  - { offsetInCU: 0x7C8A, offset: 0x7C8A, size: 0x8, addend: 0x0, symName: __ZNKSt3__15ctypeIcE5widenB8ne180100Ec, symObjAddr: 0xD74, symBinAddr: 0x100003BF4, symSize: 0x38 }
  - { offsetInCU: 0x7CBD, offset: 0x7CBD, size: 0x8, addend: 0x0, symName: __ZNSt3__18ios_base8setstateB8ne180100Ej, symObjAddr: 0xDAC, symBinAddr: 0x100003C2C, symSize: 0x34 }
  - { offsetInCU: 0x7CF2, offset: 0x7CF2, size: 0x8, addend: 0x0, symName: __ZN3CatC2Ev, symObjAddr: 0xE04, symBinAddr: 0x100003C84, symSize: 0x44 }
  - { offsetInCU: 0x7D1C, offset: 0x7D1C, size: 0x8, addend: 0x0, symName: __ZN3Cat5soundEv, symObjAddr: 0xE48, symBinAddr: 0x100003CC8, symSize: 0x30 }
...
